
cosc562.elf:     file format elf64-littleriscv


Disassembly of section .text:

0000000080050000 <_memory_start>:
    80050000:	00023117          	auipc	sp,0x23
    80050004:	00010113          	mv	sp,sp
    80050008:	00004197          	auipc	gp,0x4
    8005000c:	65818193          	addi	gp,gp,1624 # 80054660 <__global_pointer$>
    80050010:	00003297          	auipc	t0,0x3
    80050014:	03828293          	addi	t0,t0,56 # 80053048 <main>
    80050018:	14129073          	csrw	sepc,t0
    8005001c:	00004297          	auipc	t0,0x4
    80050020:	52428293          	addi	t0,t0,1316 # 80054540 <sup_trap_vector>
    80050024:	10529073          	csrw	stvec,t0
    80050028:	20000293          	li	t0,512
    8005002c:	10429073          	csrw	sie,t0
    80050030:	6289                	lui	t0,0x2
    80050032:	1202829b          	addiw	t0,t0,288
    80050036:	10029073          	csrw	sstatus,t0
    8005003a:	10200073          	sret

000000008005003e <append_node>:
    8005003e:	1101                	addi	sp,sp,-32
    80050040:	ec22                	sd	s0,24(sp)
    80050042:	1000                	addi	s0,sp,32
    80050044:	fea43423          	sd	a0,-24(s0)
    80050048:	feb43023          	sd	a1,-32(s0)
    8005004c:	fe843783          	ld	a5,-24(s0)
    80050050:	6798                	ld	a4,8(a5)
    80050052:	fe043783          	ld	a5,-32(s0)
    80050056:	e798                	sd	a4,8(a5)
    80050058:	fe043783          	ld	a5,-32(s0)
    8005005c:	fe843703          	ld	a4,-24(s0)
    80050060:	eb98                	sd	a4,16(a5)
    80050062:	fe043783          	ld	a5,-32(s0)
    80050066:	679c                	ld	a5,8(a5)
    80050068:	fe043703          	ld	a4,-32(s0)
    8005006c:	eb98                	sd	a4,16(a5)
    8005006e:	fe043783          	ld	a5,-32(s0)
    80050072:	6b9c                	ld	a5,16(a5)
    80050074:	fe043703          	ld	a4,-32(s0)
    80050078:	e798                	sd	a4,8(a5)
    8005007a:	0001                	nop
    8005007c:	6462                	ld	s0,24(sp)
    8005007e:	6105                	addi	sp,sp,32
    80050080:	8082                	ret

0000000080050082 <remove_node>:
    80050082:	1101                	addi	sp,sp,-32
    80050084:	ec22                	sd	s0,24(sp)
    80050086:	1000                	addi	s0,sp,32
    80050088:	fea43423          	sd	a0,-24(s0)
    8005008c:	fe843783          	ld	a5,-24(s0)
    80050090:	679c                	ld	a5,8(a5)
    80050092:	fe843703          	ld	a4,-24(s0)
    80050096:	6b18                	ld	a4,16(a4)
    80050098:	eb98                	sd	a4,16(a5)
    8005009a:	fe843783          	ld	a5,-24(s0)
    8005009e:	6b9c                	ld	a5,16(a5)
    800500a0:	fe843703          	ld	a4,-24(s0)
    800500a4:	6718                	ld	a4,8(a4)
    800500a6:	e798                	sd	a4,8(a5)
    800500a8:	0001                	nop
    800500aa:	6462                	ld	s0,24(sp)
    800500ac:	6105                	addi	sp,sp,32
    800500ae:	8082                	ret

00000000800500b0 <imalloc_init>:
    800500b0:	1101                	addi	sp,sp,-32
    800500b2:	ec06                	sd	ra,24(sp)
    800500b4:	e822                	sd	s0,16(sp)
    800500b6:	1000                	addi	s0,sp,32
    800500b8:	4505                	li	a0,1
    800500ba:	586030ef          	jal	ra,80053640 <page_cont_falloc>
    800500be:	fea43423          	sd	a0,-24(s0)
    800500c2:	00005797          	auipc	a5,0x5
    800500c6:	f5678793          	addi	a5,a5,-170 # 80055018 <kernel_page_table>
    800500ca:	6398                	ld	a4,0(a5)
    800500cc:	00012797          	auipc	a5,0x12
    800500d0:	f3478793          	addi	a5,a5,-204 # 80062000 <starting_virt_addr>
    800500d4:	639c                	ld	a5,0(a5)
    800500d6:	fe843603          	ld	a2,-24(s0)
    800500da:	4699                	li	a3,6
    800500dc:	85be                	mv	a1,a5
    800500de:	853a                	mv	a0,a4
    800500e0:	6b0000ef          	jal	ra,80050790 <mmu_map_single>
    800500e4:	67c1                	lui	a5,0x10
    800500e6:	17fd                	addi	a5,a5,-1
    800500e8:	12f00073          	sfence.vma	zero,a5
    800500ec:	00012797          	auipc	a5,0x12
    800500f0:	f1478793          	addi	a5,a5,-236 # 80062000 <starting_virt_addr>
    800500f4:	639c                	ld	a5,0(a5)
    800500f6:	873e                	mv	a4,a5
    800500f8:	00005797          	auipc	a5,0x5
    800500fc:	f0878793          	addi	a5,a5,-248 # 80055000 <imalloc_head>
    80050100:	e398                	sd	a4,0(a5)
    80050102:	00005797          	auipc	a5,0x5
    80050106:	efe78793          	addi	a5,a5,-258 # 80055000 <imalloc_head>
    8005010a:	639c                	ld	a5,0(a5)
    8005010c:	0007b023          	sd	zero,0(a5)
    80050110:	00005797          	auipc	a5,0x5
    80050114:	ef078793          	addi	a5,a5,-272 # 80055000 <imalloc_head>
    80050118:	639c                	ld	a5,0(a5)
    8005011a:	00005717          	auipc	a4,0x5
    8005011e:	ee670713          	addi	a4,a4,-282 # 80055000 <imalloc_head>
    80050122:	6318                	ld	a4,0(a4)
    80050124:	eb98                	sd	a4,16(a5)
    80050126:	00005717          	auipc	a4,0x5
    8005012a:	eda70713          	addi	a4,a4,-294 # 80055000 <imalloc_head>
    8005012e:	6318                	ld	a4,0(a4)
    80050130:	6b9c                	ld	a5,16(a5)
    80050132:	e71c                	sd	a5,8(a4)
    80050134:	0001                	nop
    80050136:	60e2                	ld	ra,24(sp)
    80050138:	6442                	ld	s0,16(sp)
    8005013a:	6105                	addi	sp,sp,32
    8005013c:	8082                	ret

000000008005013e <imalloc>:
    8005013e:	715d                	addi	sp,sp,-80
    80050140:	e486                	sd	ra,72(sp)
    80050142:	e0a2                	sd	s0,64(sp)
    80050144:	0880                	addi	s0,sp,80
    80050146:	faa43c23          	sd	a0,-72(s0)
    8005014a:	fe043023          	sd	zero,-32(s0)
    8005014e:	fb843783          	ld	a5,-72(s0)
    80050152:	02078793          	addi	a5,a5,32
    80050156:	9bc1                	andi	a5,a5,-16
    80050158:	faf43c23          	sd	a5,-72(s0)
    8005015c:	00005797          	auipc	a5,0x5
    80050160:	ea478793          	addi	a5,a5,-348 # 80055000 <imalloc_head>
    80050164:	639c                	ld	a5,0(a5)
    80050166:	679c                	ld	a5,8(a5)
    80050168:	fef43423          	sd	a5,-24(s0)
    8005016c:	a031                	j	80050178 <imalloc+0x3a>
    8005016e:	fe843783          	ld	a5,-24(s0)
    80050172:	679c                	ld	a5,8(a5)
    80050174:	fef43423          	sd	a5,-24(s0)
    80050178:	00005797          	auipc	a5,0x5
    8005017c:	e8878793          	addi	a5,a5,-376 # 80055000 <imalloc_head>
    80050180:	639c                	ld	a5,0(a5)
    80050182:	fe843703          	ld	a4,-24(s0)
    80050186:	00f70963          	beq	a4,a5,80050198 <imalloc+0x5a>
    8005018a:	fe843783          	ld	a5,-24(s0)
    8005018e:	639c                	ld	a5,0(a5)
    80050190:	fb843703          	ld	a4,-72(s0)
    80050194:	fce7ede3          	bltu	a5,a4,8005016e <imalloc+0x30>
    80050198:	00005797          	auipc	a5,0x5
    8005019c:	e6878793          	addi	a5,a5,-408 # 80055000 <imalloc_head>
    800501a0:	639c                	ld	a5,0(a5)
    800501a2:	fe843703          	ld	a4,-24(s0)
    800501a6:	0cf71b63          	bne	a4,a5,8005027c <imalloc+0x13e>
    800501aa:	fb843783          	ld	a5,-72(s0)
    800501ae:	83b1                	srli	a5,a5,0xc
    800501b0:	0789                	addi	a5,a5,2
    800501b2:	fcf43c23          	sd	a5,-40(s0)
    800501b6:	fd843783          	ld	a5,-40(s0)
    800501ba:	00c79713          	slli	a4,a5,0xc
    800501be:	00012797          	auipc	a5,0x12
    800501c2:	e4278793          	addi	a5,a5,-446 # 80062000 <starting_virt_addr>
    800501c6:	639c                	ld	a5,0(a5)
    800501c8:	973e                	add	a4,a4,a5
    800501ca:	00012797          	auipc	a5,0x12
    800501ce:	e3678793          	addi	a5,a5,-458 # 80062000 <starting_virt_addr>
    800501d2:	e398                	sd	a4,0(a5)
    800501d4:	fd843503          	ld	a0,-40(s0)
    800501d8:	468030ef          	jal	ra,80053640 <page_cont_falloc>
    800501dc:	fca43823          	sd	a0,-48(s0)
    800501e0:	fd043783          	ld	a5,-48(s0)
    800501e4:	e399                	bnez	a5,800501ea <imalloc+0xac>
    800501e6:	4781                	li	a5,0
    800501e8:	a0f5                	j	800502d4 <imalloc+0x196>
    800501ea:	00012797          	auipc	a5,0x12
    800501ee:	e1678793          	addi	a5,a5,-490 # 80062000 <starting_virt_addr>
    800501f2:	639c                	ld	a5,0(a5)
    800501f4:	fcf43423          	sd	a5,-56(s0)
    800501f8:	00012797          	auipc	a5,0x12
    800501fc:	e0878793          	addi	a5,a5,-504 # 80062000 <starting_virt_addr>
    80050200:	639c                	ld	a5,0(a5)
    80050202:	fef43423          	sd	a5,-24(s0)
    80050206:	00005797          	auipc	a5,0x5
    8005020a:	e1278793          	addi	a5,a5,-494 # 80055018 <kernel_page_table>
    8005020e:	6388                	ld	a0,0(a5)
    80050210:	00012797          	auipc	a5,0x12
    80050214:	df078793          	addi	a5,a5,-528 # 80062000 <starting_virt_addr>
    80050218:	638c                	ld	a1,0(a5)
    8005021a:	fd043603          	ld	a2,-48(s0)
    8005021e:	fd843783          	ld	a5,-40(s0)
    80050222:	07b2                	slli	a5,a5,0xc
    80050224:	4719                	li	a4,6
    80050226:	86be                	mv	a3,a5
    80050228:	3ba000ef          	jal	ra,800505e2 <mmu_map>
    8005022c:	67c1                	lui	a5,0x10
    8005022e:	17fd                	addi	a5,a5,-1
    80050230:	12f00073          	sfence.vma	zero,a5
    80050234:	fd843703          	ld	a4,-40(s0)
    80050238:	87ba                	mv	a5,a4
    8005023a:	07a6                	slli	a5,a5,0x9
    8005023c:	8f99                	sub	a5,a5,a4
    8005023e:	078e                	slli	a5,a5,0x3
    80050240:	873e                	mv	a4,a5
    80050242:	fc843783          	ld	a5,-56(s0)
    80050246:	e398                	sd	a4,0(a5)
    80050248:	00005797          	auipc	a5,0x5
    8005024c:	dc078793          	addi	a5,a5,-576 # 80055008 <total_num_pages>
    80050250:	6398                	ld	a4,0(a5)
    80050252:	fe043783          	ld	a5,-32(s0)
    80050256:	973e                	add	a4,a4,a5
    80050258:	00005797          	auipc	a5,0x5
    8005025c:	db078793          	addi	a5,a5,-592 # 80055008 <total_num_pages>
    80050260:	e398                	sd	a4,0(a5)
    80050262:	00005797          	auipc	a5,0x5
    80050266:	d9e78793          	addi	a5,a5,-610 # 80055000 <imalloc_head>
    8005026a:	639c                	ld	a5,0(a5)
    8005026c:	6b9c                	ld	a5,16(a5)
    8005026e:	fc843583          	ld	a1,-56(s0)
    80050272:	853e                	mv	a0,a5
    80050274:	dcbff0ef          	jal	ra,8005003e <append_node>
    80050278:	0d0000ef          	jal	ra,80050348 <coalesce_free_list>
    8005027c:	fe843783          	ld	a5,-24(s0)
    80050280:	6398                	ld	a4,0(a5)
    80050282:	fb843783          	ld	a5,-72(s0)
    80050286:	40f707b3          	sub	a5,a4,a5
    8005028a:	fe843703          	ld	a4,-24(s0)
    8005028e:	97ba                	add	a5,a5,a4
    80050290:	fcf43023          	sd	a5,-64(s0)
    80050294:	fe843783          	ld	a5,-24(s0)
    80050298:	6398                	ld	a4,0(a5)
    8005029a:	fb843783          	ld	a5,-72(s0)
    8005029e:	8f1d                	sub	a4,a4,a5
    800502a0:	47bd                	li	a5,15
    800502a2:	00e7e763          	bltu	a5,a4,800502b0 <imalloc+0x172>
    800502a6:	fe843503          	ld	a0,-24(s0)
    800502aa:	dd9ff0ef          	jal	ra,80050082 <remove_node>
    800502ae:	a005                	j	800502ce <imalloc+0x190>
    800502b0:	fc043783          	ld	a5,-64(s0)
    800502b4:	fb843703          	ld	a4,-72(s0)
    800502b8:	e398                	sd	a4,0(a5)
    800502ba:	fc043783          	ld	a5,-64(s0)
    800502be:	639c                	ld	a5,0(a5)
    800502c0:	fe843703          	ld	a4,-24(s0)
    800502c4:	6318                	ld	a4,0(a4)
    800502c6:	8f1d                	sub	a4,a4,a5
    800502c8:	fe843783          	ld	a5,-24(s0)
    800502cc:	e398                	sd	a4,0(a5)
    800502ce:	fc043783          	ld	a5,-64(s0)
    800502d2:	07a1                	addi	a5,a5,8
    800502d4:	853e                	mv	a0,a5
    800502d6:	60a6                	ld	ra,72(sp)
    800502d8:	6406                	ld	s0,64(sp)
    800502da:	6161                	addi	sp,sp,80
    800502dc:	8082                	ret

00000000800502de <imfree>:
    800502de:	7179                	addi	sp,sp,-48
    800502e0:	f406                	sd	ra,40(sp)
    800502e2:	f022                	sd	s0,32(sp)
    800502e4:	1800                	addi	s0,sp,48
    800502e6:	fca43c23          	sd	a0,-40(s0)
    800502ea:	fd843783          	ld	a5,-40(s0)
    800502ee:	17e1                	addi	a5,a5,-8
    800502f0:	fcf43c23          	sd	a5,-40(s0)
    800502f4:	00005797          	auipc	a5,0x5
    800502f8:	d0c78793          	addi	a5,a5,-756 # 80055000 <imalloc_head>
    800502fc:	639c                	ld	a5,0(a5)
    800502fe:	6b9c                	ld	a5,16(a5)
    80050300:	fef43423          	sd	a5,-24(s0)
    80050304:	a031                	j	80050310 <imfree+0x32>
    80050306:	fe843783          	ld	a5,-24(s0)
    8005030a:	6b9c                	ld	a5,16(a5)
    8005030c:	fef43423          	sd	a5,-24(s0)
    80050310:	00005797          	auipc	a5,0x5
    80050314:	cf078793          	addi	a5,a5,-784 # 80055000 <imalloc_head>
    80050318:	639c                	ld	a5,0(a5)
    8005031a:	fe843703          	ld	a4,-24(s0)
    8005031e:	00f70863          	beq	a4,a5,8005032e <imfree+0x50>
    80050322:	fd843703          	ld	a4,-40(s0)
    80050326:	fe843783          	ld	a5,-24(s0)
    8005032a:	fcf76ee3          	bltu	a4,a5,80050306 <imfree+0x28>
    8005032e:	fd843583          	ld	a1,-40(s0)
    80050332:	fe843503          	ld	a0,-24(s0)
    80050336:	d09ff0ef          	jal	ra,8005003e <append_node>
    8005033a:	00e000ef          	jal	ra,80050348 <coalesce_free_list>
    8005033e:	0001                	nop
    80050340:	70a2                	ld	ra,40(sp)
    80050342:	7402                	ld	s0,32(sp)
    80050344:	6145                	addi	sp,sp,48
    80050346:	8082                	ret

0000000080050348 <coalesce_free_list>:
    80050348:	1101                	addi	sp,sp,-32
    8005034a:	ec06                	sd	ra,24(sp)
    8005034c:	e822                	sd	s0,16(sp)
    8005034e:	1000                	addi	s0,sp,32
    80050350:	00005797          	auipc	a5,0x5
    80050354:	cb078793          	addi	a5,a5,-848 # 80055000 <imalloc_head>
    80050358:	639c                	ld	a5,0(a5)
    8005035a:	679c                	ld	a5,8(a5)
    8005035c:	fef43423          	sd	a5,-24(s0)
    80050360:	a091                	j	800503a4 <coalesce_free_list+0x5c>
    80050362:	fe843783          	ld	a5,-24(s0)
    80050366:	639c                	ld	a5,0(a5)
    80050368:	fe843703          	ld	a4,-24(s0)
    8005036c:	973e                	add	a4,a4,a5
    8005036e:	fe843783          	ld	a5,-24(s0)
    80050372:	679c                	ld	a5,8(a5)
    80050374:	02f71363          	bne	a4,a5,8005039a <coalesce_free_list+0x52>
    80050378:	fe843783          	ld	a5,-24(s0)
    8005037c:	6398                	ld	a4,0(a5)
    8005037e:	fe843783          	ld	a5,-24(s0)
    80050382:	679c                	ld	a5,8(a5)
    80050384:	639c                	ld	a5,0(a5)
    80050386:	973e                	add	a4,a4,a5
    80050388:	fe843783          	ld	a5,-24(s0)
    8005038c:	e398                	sd	a4,0(a5)
    8005038e:	fe843783          	ld	a5,-24(s0)
    80050392:	679c                	ld	a5,8(a5)
    80050394:	853e                	mv	a0,a5
    80050396:	cedff0ef          	jal	ra,80050082 <remove_node>
    8005039a:	fe843783          	ld	a5,-24(s0)
    8005039e:	679c                	ld	a5,8(a5)
    800503a0:	fef43423          	sd	a5,-24(s0)
    800503a4:	fe843783          	ld	a5,-24(s0)
    800503a8:	6798                	ld	a4,8(a5)
    800503aa:	00005797          	auipc	a5,0x5
    800503ae:	c5678793          	addi	a5,a5,-938 # 80055000 <imalloc_head>
    800503b2:	639c                	ld	a5,0(a5)
    800503b4:	faf717e3          	bne	a4,a5,80050362 <coalesce_free_list+0x1a>
    800503b8:	0001                	nop
    800503ba:	0001                	nop
    800503bc:	60e2                	ld	ra,24(sp)
    800503be:	6442                	ld	s0,16(sp)
    800503c0:	6105                	addi	sp,sp,32
    800503c2:	8082                	ret

00000000800503c4 <print_flist>:
    800503c4:	1101                	addi	sp,sp,-32
    800503c6:	ec06                	sd	ra,24(sp)
    800503c8:	e822                	sd	s0,16(sp)
    800503ca:	1000                	addi	s0,sp,32
    800503cc:	00005797          	auipc	a5,0x5
    800503d0:	c3478793          	addi	a5,a5,-972 # 80055000 <imalloc_head>
    800503d4:	6398                	ld	a4,0(a5)
    800503d6:	00005797          	auipc	a5,0x5
    800503da:	c2a78793          	addi	a5,a5,-982 # 80055000 <imalloc_head>
    800503de:	639c                	ld	a5,0(a5)
    800503e0:	639c                	ld	a5,0(a5)
    800503e2:	863e                	mv	a2,a5
    800503e4:	85ba                	mv	a1,a4
    800503e6:	00011517          	auipc	a0,0x11
    800503ea:	c1a50513          	addi	a0,a0,-998 # 80061000 <_rodata_start>
    800503ee:	7d5010ef          	jal	ra,800523c2 <kprint>
    800503f2:	00005797          	auipc	a5,0x5
    800503f6:	c0e78793          	addi	a5,a5,-1010 # 80055000 <imalloc_head>
    800503fa:	639c                	ld	a5,0(a5)
    800503fc:	679c                	ld	a5,8(a5)
    800503fe:	fef43423          	sd	a5,-24(s0)
    80050402:	a015                	j	80050426 <print_flist+0x62>
    80050404:	fe843783          	ld	a5,-24(s0)
    80050408:	639c                	ld	a5,0(a5)
    8005040a:	863e                	mv	a2,a5
    8005040c:	fe843583          	ld	a1,-24(s0)
    80050410:	00011517          	auipc	a0,0x11
    80050414:	c1850513          	addi	a0,a0,-1000 # 80061028 <_rodata_start+0x28>
    80050418:	7ab010ef          	jal	ra,800523c2 <kprint>
    8005041c:	fe843783          	ld	a5,-24(s0)
    80050420:	679c                	ld	a5,8(a5)
    80050422:	fef43423          	sd	a5,-24(s0)
    80050426:	00005797          	auipc	a5,0x5
    8005042a:	bda78793          	addi	a5,a5,-1062 # 80055000 <imalloc_head>
    8005042e:	639c                	ld	a5,0(a5)
    80050430:	fe843703          	ld	a4,-24(s0)
    80050434:	fcf718e3          	bne	a4,a5,80050404 <print_flist+0x40>
    80050438:	0001                	nop
    8005043a:	0001                	nop
    8005043c:	60e2                	ld	ra,24(sp)
    8005043e:	6442                	ld	s0,16(sp)
    80050440:	6105                	addi	sp,sp,32
    80050442:	8082                	ret

0000000080050444 <find_driver>:
    80050444:	7179                	addi	sp,sp,-48
    80050446:	f422                	sd	s0,40(sp)
    80050448:	1800                	addi	s0,sp,48
    8005044a:	87aa                	mv	a5,a0
    8005044c:	872e                	mv	a4,a1
    8005044e:	fcf41f23          	sh	a5,-34(s0)
    80050452:	87ba                	mv	a5,a4
    80050454:	fcf41e23          	sh	a5,-36(s0)
    80050458:	00005797          	auipc	a5,0x5
    8005045c:	bb878793          	addi	a5,a5,-1096 # 80055010 <dlist>
    80050460:	639c                	ld	a5,0(a5)
    80050462:	fef43423          	sd	a5,-24(s0)
    80050466:	a82d                	j	800504a0 <find_driver+0x5c>
    80050468:	fe843783          	ld	a5,-24(s0)
    8005046c:	0007d783          	lhu	a5,0(a5)
    80050470:	fde45703          	lhu	a4,-34(s0)
    80050474:	2701                	sext.w	a4,a4
    80050476:	2781                	sext.w	a5,a5
    80050478:	00f71f63          	bne	a4,a5,80050496 <find_driver+0x52>
    8005047c:	fe843783          	ld	a5,-24(s0)
    80050480:	0027d783          	lhu	a5,2(a5)
    80050484:	fdc45703          	lhu	a4,-36(s0)
    80050488:	2701                	sext.w	a4,a4
    8005048a:	2781                	sext.w	a5,a5
    8005048c:	00f71563          	bne	a4,a5,80050496 <find_driver+0x52>
    80050490:	fe843783          	ld	a5,-24(s0)
    80050494:	a811                	j	800504a8 <find_driver+0x64>
    80050496:	fe843783          	ld	a5,-24(s0)
    8005049a:	67bc                	ld	a5,72(a5)
    8005049c:	fef43423          	sd	a5,-24(s0)
    800504a0:	fe843783          	ld	a5,-24(s0)
    800504a4:	f3f1                	bnez	a5,80050468 <find_driver+0x24>
    800504a6:	4781                	li	a5,0
    800504a8:	853e                	mv	a0,a5
    800504aa:	7422                	ld	s0,40(sp)
    800504ac:	6145                	addi	sp,sp,48
    800504ae:	8082                	ret

00000000800504b0 <pci_register_driver>:
    800504b0:	7139                	addi	sp,sp,-64
    800504b2:	fc06                	sd	ra,56(sp)
    800504b4:	f822                	sd	s0,48(sp)
    800504b6:	0080                	addi	s0,sp,64
    800504b8:	87aa                	mv	a5,a0
    800504ba:	fcc43823          	sd	a2,-48(s0)
    800504be:	fcd43423          	sd	a3,-56(s0)
    800504c2:	fcf41f23          	sh	a5,-34(s0)
    800504c6:	87ae                	mv	a5,a1
    800504c8:	fcf41e23          	sh	a5,-36(s0)
    800504cc:	87ba                	mv	a5,a4
    800504ce:	fcf42c23          	sw	a5,-40(s0)
    800504d2:	fdc45703          	lhu	a4,-36(s0)
    800504d6:	fde45783          	lhu	a5,-34(s0)
    800504da:	85ba                	mv	a1,a4
    800504dc:	853e                	mv	a0,a5
    800504de:	f67ff0ef          	jal	ra,80050444 <find_driver>
    800504e2:	87aa                	mv	a5,a0
    800504e4:	c795                	beqz	a5,80050510 <pci_register_driver+0x60>
    800504e6:	00011517          	auipc	a0,0x11
    800504ea:	b6250513          	addi	a0,a0,-1182 # 80061048 <_rodata_start+0x48>
    800504ee:	6d5010ef          	jal	ra,800523c2 <kprint>
    800504f2:	fde45783          	lhu	a5,-34(s0)
    800504f6:	2781                	sext.w	a5,a5
    800504f8:	fdc45703          	lhu	a4,-36(s0)
    800504fc:	2701                	sext.w	a4,a4
    800504fe:	863a                	mv	a2,a4
    80050500:	85be                	mv	a1,a5
    80050502:	00011517          	auipc	a0,0x11
    80050506:	b7650513          	addi	a0,a0,-1162 # 80061078 <_rodata_start+0x78>
    8005050a:	6b9010ef          	jal	ra,800523c2 <kprint>
    8005050e:	a0e9                	j	800505d8 <pci_register_driver+0x128>
    80050510:	05000513          	li	a0,80
    80050514:	c2bff0ef          	jal	ra,8005013e <imalloc>
    80050518:	fea43423          	sd	a0,-24(s0)
    8005051c:	03800513          	li	a0,56
    80050520:	c1fff0ef          	jal	ra,8005013e <imalloc>
    80050524:	872a                	mv	a4,a0
    80050526:	fe843783          	ld	a5,-24(s0)
    8005052a:	fb98                	sd	a4,48(a5)
    8005052c:	fe843783          	ld	a5,-24(s0)
    80050530:	fde45703          	lhu	a4,-34(s0)
    80050534:	00e79023          	sh	a4,0(a5)
    80050538:	fe843783          	ld	a5,-24(s0)
    8005053c:	fdc45703          	lhu	a4,-36(s0)
    80050540:	00e79123          	sh	a4,2(a5)
    80050544:	fe843783          	ld	a5,-24(s0)
    80050548:	00079223          	sh	zero,4(a5)
    8005054c:	fe843783          	ld	a5,-24(s0)
    80050550:	0007bc23          	sd	zero,24(a5)
    80050554:	fe843783          	ld	a5,-24(s0)
    80050558:	0207b023          	sd	zero,32(a5)
    8005055c:	fe843783          	ld	a5,-24(s0)
    80050560:	02079423          	sh	zero,40(a5)
    80050564:	fd842783          	lw	a5,-40(s0)
    80050568:	2781                	sext.w	a5,a5
    8005056a:	cb89                	beqz	a5,8005057c <pci_register_driver+0xcc>
    8005056c:	fd842783          	lw	a5,-40(s0)
    80050570:	0007871b          	sext.w	a4,a5
    80050574:	4785                	li	a5,1
    80050576:	02f70263          	beq	a4,a5,8005059a <pci_register_driver+0xea>
    8005057a:	a081                	j	800505ba <pci_register_driver+0x10a>
    8005057c:	fd043703          	ld	a4,-48(s0)
    80050580:	fe843783          	ld	a5,-24(s0)
    80050584:	ff98                	sd	a4,56(a5)
    80050586:	fc843703          	ld	a4,-56(s0)
    8005058a:	fe843783          	ld	a5,-24(s0)
    8005058e:	e3b8                	sd	a4,64(a5)
    80050590:	fe843783          	ld	a5,-24(s0)
    80050594:	00079823          	sh	zero,16(a5)
    80050598:	a00d                	j	800505ba <pci_register_driver+0x10a>
    8005059a:	fd043703          	ld	a4,-48(s0)
    8005059e:	fe843783          	ld	a5,-24(s0)
    800505a2:	ff98                	sd	a4,56(a5)
    800505a4:	fc843703          	ld	a4,-56(s0)
    800505a8:	fe843783          	ld	a5,-24(s0)
    800505ac:	e3b8                	sd	a4,64(a5)
    800505ae:	fe843783          	ld	a5,-24(s0)
    800505b2:	4705                	li	a4,1
    800505b4:	00e79823          	sh	a4,16(a5)
    800505b8:	0001                	nop
    800505ba:	00005797          	auipc	a5,0x5
    800505be:	a5678793          	addi	a5,a5,-1450 # 80055010 <dlist>
    800505c2:	6398                	ld	a4,0(a5)
    800505c4:	fe843783          	ld	a5,-24(s0)
    800505c8:	e7b8                	sd	a4,72(a5)
    800505ca:	00005797          	auipc	a5,0x5
    800505ce:	a4678793          	addi	a5,a5,-1466 # 80055010 <dlist>
    800505d2:	fe843703          	ld	a4,-24(s0)
    800505d6:	e398                	sd	a4,0(a5)
    800505d8:	0001                	nop
    800505da:	70e2                	ld	ra,56(sp)
    800505dc:	7442                	ld	s0,48(sp)
    800505de:	6121                	addi	sp,sp,64
    800505e0:	8082                	ret

00000000800505e2 <mmu_map>:
    800505e2:	7135                	addi	sp,sp,-160
    800505e4:	ed06                	sd	ra,152(sp)
    800505e6:	e922                	sd	s0,144(sp)
    800505e8:	1100                	addi	s0,sp,160
    800505ea:	f8a43423          	sd	a0,-120(s0)
    800505ee:	f8b43023          	sd	a1,-128(s0)
    800505f2:	f6c43c23          	sd	a2,-136(s0)
    800505f6:	f6d43823          	sd	a3,-144(s0)
    800505fa:	f6e43423          	sd	a4,-152(s0)
    800505fe:	f8843783          	ld	a5,-120(s0)
    80050602:	fcf43823          	sd	a5,-48(s0)
    80050606:	fe043423          	sd	zero,-24(s0)
    8005060a:	00005517          	auipc	a0,0x5
    8005060e:	a1650513          	addi	a0,a0,-1514 # 80055020 <mmu_lock>
    80050612:	728020ef          	jal	ra,80052d3a <mutex_spinlock>
    80050616:	fe043023          	sd	zero,-32(s0)
    8005061a:	aa91                	j	8005076e <mmu_map+0x18c>
    8005061c:	f8043703          	ld	a4,-128(s0)
    80050620:	fe043783          	ld	a5,-32(s0)
    80050624:	97ba                	add	a5,a5,a4
    80050626:	83b1                	srli	a5,a5,0xc
    80050628:	1ff7f793          	andi	a5,a5,511
    8005062c:	faf43823          	sd	a5,-80(s0)
    80050630:	f8043703          	ld	a4,-128(s0)
    80050634:	fe043783          	ld	a5,-32(s0)
    80050638:	97ba                	add	a5,a5,a4
    8005063a:	83d5                	srli	a5,a5,0x15
    8005063c:	1ff7f793          	andi	a5,a5,511
    80050640:	faf43c23          	sd	a5,-72(s0)
    80050644:	f8043703          	ld	a4,-128(s0)
    80050648:	fe043783          	ld	a5,-32(s0)
    8005064c:	97ba                	add	a5,a5,a4
    8005064e:	83f9                	srli	a5,a5,0x1e
    80050650:	1ff7f793          	andi	a5,a5,511
    80050654:	fcf43023          	sd	a5,-64(s0)
    80050658:	f7843703          	ld	a4,-136(s0)
    8005065c:	fe043783          	ld	a5,-32(s0)
    80050660:	97ba                	add	a5,a5,a4
    80050662:	83b1                	srli	a5,a5,0xc
    80050664:	1ff7f793          	andi	a5,a5,511
    80050668:	f8f43c23          	sd	a5,-104(s0)
    8005066c:	f7843703          	ld	a4,-136(s0)
    80050670:	fe043783          	ld	a5,-32(s0)
    80050674:	97ba                	add	a5,a5,a4
    80050676:	83d5                	srli	a5,a5,0x15
    80050678:	1ff7f793          	andi	a5,a5,511
    8005067c:	faf43023          	sd	a5,-96(s0)
    80050680:	f7843703          	ld	a4,-136(s0)
    80050684:	fe043783          	ld	a5,-32(s0)
    80050688:	97ba                	add	a5,a5,a4
    8005068a:	01e7d713          	srli	a4,a5,0x1e
    8005068e:	040007b7          	lui	a5,0x4000
    80050692:	17fd                	addi	a5,a5,-1
    80050694:	8ff9                	and	a5,a5,a4
    80050696:	faf43423          	sd	a5,-88(s0)
    8005069a:	4789                	li	a5,2
    8005069c:	fcf42e23          	sw	a5,-36(s0)
    800506a0:	a8a5                	j	80050718 <mmu_map+0x136>
    800506a2:	fdc42783          	lw	a5,-36(s0)
    800506a6:	078e                	slli	a5,a5,0x3
    800506a8:	ff040713          	addi	a4,s0,-16
    800506ac:	97ba                	add	a5,a5,a4
    800506ae:	fc07b783          	ld	a5,-64(a5) # 3ffffc0 <i+0x3ffffa0>
    800506b2:	f8843703          	ld	a4,-120(s0)
    800506b6:	078e                	slli	a5,a5,0x3
    800506b8:	97ba                	add	a5,a5,a4
    800506ba:	639c                	ld	a5,0(a5)
    800506bc:	fef43423          	sd	a5,-24(s0)
    800506c0:	fe843783          	ld	a5,-24(s0)
    800506c4:	8b85                	andi	a5,a5,1
    800506c6:	ef85                	bnez	a5,800506fe <mmu_map+0x11c>
    800506c8:	4505                	li	a0,1
    800506ca:	777020ef          	jal	ra,80053640 <page_cont_falloc>
    800506ce:	fca43423          	sd	a0,-56(s0)
    800506d2:	fc843783          	ld	a5,-56(s0)
    800506d6:	8389                	srli	a5,a5,0x2
    800506d8:	0017e793          	ori	a5,a5,1
    800506dc:	fef43423          	sd	a5,-24(s0)
    800506e0:	fdc42783          	lw	a5,-36(s0)
    800506e4:	078e                	slli	a5,a5,0x3
    800506e6:	ff040713          	addi	a4,s0,-16
    800506ea:	97ba                	add	a5,a5,a4
    800506ec:	fc07b783          	ld	a5,-64(a5)
    800506f0:	f8843703          	ld	a4,-120(s0)
    800506f4:	078e                	slli	a5,a5,0x3
    800506f6:	97ba                	add	a5,a5,a4
    800506f8:	fe843703          	ld	a4,-24(s0)
    800506fc:	e398                	sd	a4,0(a5)
    800506fe:	fe843783          	ld	a5,-24(s0)
    80050702:	00279713          	slli	a4,a5,0x2
    80050706:	77fd                	lui	a5,0xfffff
    80050708:	8ff9                	and	a5,a5,a4
    8005070a:	f8f43423          	sd	a5,-120(s0)
    8005070e:	fdc42783          	lw	a5,-36(s0)
    80050712:	37fd                	addiw	a5,a5,-1
    80050714:	fcf42e23          	sw	a5,-36(s0)
    80050718:	fdc42783          	lw	a5,-36(s0)
    8005071c:	2781                	sext.w	a5,a5
    8005071e:	f8f042e3          	bgtz	a5,800506a2 <mmu_map+0xc0>
    80050722:	fa843783          	ld	a5,-88(s0)
    80050726:	01c79713          	slli	a4,a5,0x1c
    8005072a:	fa043783          	ld	a5,-96(s0)
    8005072e:	07ce                	slli	a5,a5,0x13
    80050730:	8f5d                	or	a4,a4,a5
    80050732:	f9843783          	ld	a5,-104(s0)
    80050736:	07aa                	slli	a5,a5,0xa
    80050738:	8f5d                	or	a4,a4,a5
    8005073a:	f6843783          	ld	a5,-152(s0)
    8005073e:	8fd9                	or	a5,a5,a4
    80050740:	0017e793          	ori	a5,a5,1
    80050744:	fef43423          	sd	a5,-24(s0)
    80050748:	fb043783          	ld	a5,-80(s0)
    8005074c:	f8843703          	ld	a4,-120(s0)
    80050750:	078e                	slli	a5,a5,0x3
    80050752:	97ba                	add	a5,a5,a4
    80050754:	fe843703          	ld	a4,-24(s0)
    80050758:	e398                	sd	a4,0(a5)
    8005075a:	fd043783          	ld	a5,-48(s0)
    8005075e:	f8f43423          	sd	a5,-120(s0)
    80050762:	fe043703          	ld	a4,-32(s0)
    80050766:	6785                	lui	a5,0x1
    80050768:	97ba                	add	a5,a5,a4
    8005076a:	fef43023          	sd	a5,-32(s0)
    8005076e:	fe043703          	ld	a4,-32(s0)
    80050772:	f7043783          	ld	a5,-144(s0)
    80050776:	eaf763e3          	bltu	a4,a5,8005061c <mmu_map+0x3a>
    8005077a:	00005517          	auipc	a0,0x5
    8005077e:	8a650513          	addi	a0,a0,-1882 # 80055020 <mmu_lock>
    80050782:	59e020ef          	jal	ra,80052d20 <mutex_unlock>
    80050786:	0001                	nop
    80050788:	60ea                	ld	ra,152(sp)
    8005078a:	644a                	ld	s0,144(sp)
    8005078c:	610d                	addi	sp,sp,160
    8005078e:	8082                	ret

0000000080050790 <mmu_map_single>:
    80050790:	7119                	addi	sp,sp,-128
    80050792:	fc86                	sd	ra,120(sp)
    80050794:	f8a2                	sd	s0,112(sp)
    80050796:	0100                	addi	s0,sp,128
    80050798:	f8a43c23          	sd	a0,-104(s0)
    8005079c:	f8b43823          	sd	a1,-112(s0)
    800507a0:	f8c43423          	sd	a2,-120(s0)
    800507a4:	f8d43023          	sd	a3,-128(s0)
    800507a8:	f9043783          	ld	a5,-112(s0)
    800507ac:	83b1                	srli	a5,a5,0xc
    800507ae:	1ff7f793          	andi	a5,a5,511
    800507b2:	fcf43023          	sd	a5,-64(s0)
    800507b6:	f9043783          	ld	a5,-112(s0)
    800507ba:	83d5                	srli	a5,a5,0x15
    800507bc:	1ff7f793          	andi	a5,a5,511
    800507c0:	fcf43423          	sd	a5,-56(s0)
    800507c4:	f9043783          	ld	a5,-112(s0)
    800507c8:	83f9                	srli	a5,a5,0x1e
    800507ca:	1ff7f793          	andi	a5,a5,511
    800507ce:	fcf43823          	sd	a5,-48(s0)
    800507d2:	f8843783          	ld	a5,-120(s0)
    800507d6:	83b1                	srli	a5,a5,0xc
    800507d8:	1ff7f793          	andi	a5,a5,511
    800507dc:	faf43423          	sd	a5,-88(s0)
    800507e0:	f8843783          	ld	a5,-120(s0)
    800507e4:	83d5                	srli	a5,a5,0x15
    800507e6:	1ff7f793          	andi	a5,a5,511
    800507ea:	faf43823          	sd	a5,-80(s0)
    800507ee:	f8843783          	ld	a5,-120(s0)
    800507f2:	01e7d713          	srli	a4,a5,0x1e
    800507f6:	040007b7          	lui	a5,0x4000
    800507fa:	17fd                	addi	a5,a5,-1
    800507fc:	8ff9                	and	a5,a5,a4
    800507fe:	faf43c23          	sd	a5,-72(s0)
    80050802:	00005517          	auipc	a0,0x5
    80050806:	81e50513          	addi	a0,a0,-2018 # 80055020 <mmu_lock>
    8005080a:	530020ef          	jal	ra,80052d3a <mutex_spinlock>
    8005080e:	4789                	li	a5,2
    80050810:	fef42223          	sw	a5,-28(s0)
    80050814:	a8a5                	j	8005088c <mmu_map_single+0xfc>
    80050816:	fe442783          	lw	a5,-28(s0)
    8005081a:	078e                	slli	a5,a5,0x3
    8005081c:	ff040713          	addi	a4,s0,-16
    80050820:	97ba                	add	a5,a5,a4
    80050822:	fd07b783          	ld	a5,-48(a5) # 3ffffd0 <i+0x3ffffb0>
    80050826:	f9843703          	ld	a4,-104(s0)
    8005082a:	078e                	slli	a5,a5,0x3
    8005082c:	97ba                	add	a5,a5,a4
    8005082e:	639c                	ld	a5,0(a5)
    80050830:	fef43423          	sd	a5,-24(s0)
    80050834:	fe843783          	ld	a5,-24(s0)
    80050838:	8b85                	andi	a5,a5,1
    8005083a:	ef85                	bnez	a5,80050872 <mmu_map_single+0xe2>
    8005083c:	4505                	li	a0,1
    8005083e:	603020ef          	jal	ra,80053640 <page_cont_falloc>
    80050842:	fca43c23          	sd	a0,-40(s0)
    80050846:	fd843783          	ld	a5,-40(s0)
    8005084a:	8389                	srli	a5,a5,0x2
    8005084c:	0017e793          	ori	a5,a5,1
    80050850:	fef43423          	sd	a5,-24(s0)
    80050854:	fe442783          	lw	a5,-28(s0)
    80050858:	078e                	slli	a5,a5,0x3
    8005085a:	ff040713          	addi	a4,s0,-16
    8005085e:	97ba                	add	a5,a5,a4
    80050860:	fd07b783          	ld	a5,-48(a5)
    80050864:	f9843703          	ld	a4,-104(s0)
    80050868:	078e                	slli	a5,a5,0x3
    8005086a:	97ba                	add	a5,a5,a4
    8005086c:	fe843703          	ld	a4,-24(s0)
    80050870:	e398                	sd	a4,0(a5)
    80050872:	fe843783          	ld	a5,-24(s0)
    80050876:	00279713          	slli	a4,a5,0x2
    8005087a:	77fd                	lui	a5,0xfffff
    8005087c:	8ff9                	and	a5,a5,a4
    8005087e:	f8f43c23          	sd	a5,-104(s0)
    80050882:	fe442783          	lw	a5,-28(s0)
    80050886:	37fd                	addiw	a5,a5,-1
    80050888:	fef42223          	sw	a5,-28(s0)
    8005088c:	fe442783          	lw	a5,-28(s0)
    80050890:	2781                	sext.w	a5,a5
    80050892:	f8f042e3          	bgtz	a5,80050816 <mmu_map_single+0x86>
    80050896:	fb843783          	ld	a5,-72(s0)
    8005089a:	01c79713          	slli	a4,a5,0x1c
    8005089e:	fb043783          	ld	a5,-80(s0)
    800508a2:	07ce                	slli	a5,a5,0x13
    800508a4:	8f5d                	or	a4,a4,a5
    800508a6:	fa843783          	ld	a5,-88(s0)
    800508aa:	07aa                	slli	a5,a5,0xa
    800508ac:	8f5d                	or	a4,a4,a5
    800508ae:	f8043783          	ld	a5,-128(s0)
    800508b2:	8fd9                	or	a5,a5,a4
    800508b4:	0017e793          	ori	a5,a5,1
    800508b8:	fef43423          	sd	a5,-24(s0)
    800508bc:	fc043783          	ld	a5,-64(s0)
    800508c0:	f9843703          	ld	a4,-104(s0)
    800508c4:	078e                	slli	a5,a5,0x3
    800508c6:	97ba                	add	a5,a5,a4
    800508c8:	fe843703          	ld	a4,-24(s0)
    800508cc:	e398                	sd	a4,0(a5)
    800508ce:	00004517          	auipc	a0,0x4
    800508d2:	75250513          	addi	a0,a0,1874 # 80055020 <mmu_lock>
    800508d6:	44a020ef          	jal	ra,80052d20 <mutex_unlock>
    800508da:	0001                	nop
    800508dc:	70e6                	ld	ra,120(sp)
    800508de:	7446                	ld	s0,112(sp)
    800508e0:	6109                	addi	sp,sp,128
    800508e2:	8082                	ret

00000000800508e4 <mmu_unmap>:
    800508e4:	7179                	addi	sp,sp,-48
    800508e6:	f406                	sd	ra,40(sp)
    800508e8:	f022                	sd	s0,32(sp)
    800508ea:	1800                	addi	s0,sp,48
    800508ec:	fca43c23          	sd	a0,-40(s0)
    800508f0:	fe043023          	sd	zero,-32(s0)
    800508f4:	fe042623          	sw	zero,-20(s0)
    800508f8:	a8a9                	j	80050952 <mmu_unmap+0x6e>
    800508fa:	fd843703          	ld	a4,-40(s0)
    800508fe:	fec42783          	lw	a5,-20(s0)
    80050902:	078e                	slli	a5,a5,0x3
    80050904:	97ba                	add	a5,a5,a4
    80050906:	639c                	ld	a5,0(a5)
    80050908:	fef43023          	sd	a5,-32(s0)
    8005090c:	fe043783          	ld	a5,-32(s0)
    80050910:	8b85                	andi	a5,a5,1
    80050912:	cb9d                	beqz	a5,80050948 <mmu_unmap+0x64>
    80050914:	fe043783          	ld	a5,-32(s0)
    80050918:	8bb9                	andi	a5,a5,14
    8005091a:	ef99                	bnez	a5,80050938 <mmu_unmap+0x54>
    8005091c:	fe043783          	ld	a5,-32(s0)
    80050920:	00279713          	slli	a4,a5,0x2
    80050924:	77fd                	lui	a5,0xfffff
    80050926:	8ff9                	and	a5,a5,a4
    80050928:	fef43023          	sd	a5,-32(s0)
    8005092c:	fe043783          	ld	a5,-32(s0)
    80050930:	853e                	mv	a0,a5
    80050932:	fb3ff0ef          	jal	ra,800508e4 <mmu_unmap>
    80050936:	a809                	j	80050948 <mmu_unmap+0x64>
    80050938:	fd843703          	ld	a4,-40(s0)
    8005093c:	fec42783          	lw	a5,-20(s0)
    80050940:	078e                	slli	a5,a5,0x3
    80050942:	97ba                	add	a5,a5,a4
    80050944:	0007b023          	sd	zero,0(a5) # fffffffffffff000 <_heap_end+0xffffffff723af000>
    80050948:	fec42783          	lw	a5,-20(s0)
    8005094c:	2785                	addiw	a5,a5,1
    8005094e:	fef42623          	sw	a5,-20(s0)
    80050952:	fec42783          	lw	a5,-20(s0)
    80050956:	0007871b          	sext.w	a4,a5
    8005095a:	1ff00793          	li	a5,511
    8005095e:	f8e7dee3          	bge	a5,a4,800508fa <mmu_unmap+0x16>
    80050962:	fd843503          	ld	a0,-40(s0)
    80050966:	69d020ef          	jal	ra,80053802 <page_cont_free>
    8005096a:	0001                	nop
    8005096c:	70a2                	ld	ra,40(sp)
    8005096e:	7402                	ld	s0,32(sp)
    80050970:	6145                	addi	sp,sp,48
    80050972:	8082                	ret

0000000080050974 <virt_to_phys>:
    80050974:	711d                	addi	sp,sp,-96
    80050976:	eca2                	sd	s0,88(sp)
    80050978:	1080                	addi	s0,sp,96
    8005097a:	faa43423          	sd	a0,-88(s0)
    8005097e:	fab43023          	sd	a1,-96(s0)
    80050982:	fe043023          	sd	zero,-32(s0)
    80050986:	fa043783          	ld	a5,-96(s0)
    8005098a:	83b1                	srli	a5,a5,0xc
    8005098c:	1ff7f793          	andi	a5,a5,511
    80050990:	fcf43423          	sd	a5,-56(s0)
    80050994:	fa043783          	ld	a5,-96(s0)
    80050998:	83d5                	srli	a5,a5,0x15
    8005099a:	1ff7f793          	andi	a5,a5,511
    8005099e:	fcf43823          	sd	a5,-48(s0)
    800509a2:	fa043783          	ld	a5,-96(s0)
    800509a6:	83f9                	srli	a5,a5,0x1e
    800509a8:	1ff7f793          	andi	a5,a5,511
    800509ac:	fcf43c23          	sd	a5,-40(s0)
    800509b0:	4789                	li	a5,2
    800509b2:	fef42623          	sw	a5,-20(s0)
    800509b6:	a211                	j	80050aba <virt_to_phys+0x146>
    800509b8:	fec42783          	lw	a5,-20(s0)
    800509bc:	078e                	slli	a5,a5,0x3
    800509be:	ff040713          	addi	a4,s0,-16
    800509c2:	97ba                	add	a5,a5,a4
    800509c4:	fd87b783          	ld	a5,-40(a5)
    800509c8:	fa843703          	ld	a4,-88(s0)
    800509cc:	078e                	slli	a5,a5,0x3
    800509ce:	97ba                	add	a5,a5,a4
    800509d0:	639c                	ld	a5,0(a5)
    800509d2:	fef43023          	sd	a5,-32(s0)
    800509d6:	fe043783          	ld	a5,-32(s0)
    800509da:	8b85                	andi	a5,a5,1
    800509dc:	e399                	bnez	a5,800509e2 <virt_to_phys+0x6e>
    800509de:	57fd                	li	a5,-1
    800509e0:	a0dd                	j	80050ac6 <virt_to_phys+0x152>
    800509e2:	fe043783          	ld	a5,-32(s0)
    800509e6:	8bb9                	andi	a5,a5,14
    800509e8:	cfc5                	beqz	a5,80050aa0 <virt_to_phys+0x12c>
    800509ea:	fe043783          	ld	a5,-32(s0)
    800509ee:	83a9                	srli	a5,a5,0xa
    800509f0:	1ff7f793          	andi	a5,a5,511
    800509f4:	faf43823          	sd	a5,-80(s0)
    800509f8:	fe043783          	ld	a5,-32(s0)
    800509fc:	83cd                	srli	a5,a5,0x13
    800509fe:	1ff7f793          	andi	a5,a5,511
    80050a02:	faf43c23          	sd	a5,-72(s0)
    80050a06:	fe043783          	ld	a5,-32(s0)
    80050a0a:	01c7d713          	srli	a4,a5,0x1c
    80050a0e:	040007b7          	lui	a5,0x4000
    80050a12:	17fd                	addi	a5,a5,-1
    80050a14:	8ff9                	and	a5,a5,a4
    80050a16:	fcf43023          	sd	a5,-64(s0)
    80050a1a:	fec42783          	lw	a5,-20(s0)
    80050a1e:	2781                	sext.w	a5,a5
    80050a20:	e785                	bnez	a5,80050a48 <virt_to_phys+0xd4>
    80050a22:	fc043783          	ld	a5,-64(s0)
    80050a26:	01e79713          	slli	a4,a5,0x1e
    80050a2a:	fb843783          	ld	a5,-72(s0)
    80050a2e:	07d6                	slli	a5,a5,0x15
    80050a30:	8f5d                	or	a4,a4,a5
    80050a32:	fb043783          	ld	a5,-80(s0)
    80050a36:	07b2                	slli	a5,a5,0xc
    80050a38:	8f5d                	or	a4,a4,a5
    80050a3a:	fa043683          	ld	a3,-96(s0)
    80050a3e:	6785                	lui	a5,0x1
    80050a40:	17fd                	addi	a5,a5,-1
    80050a42:	8ff5                	and	a5,a5,a3
    80050a44:	8fd9                	or	a5,a5,a4
    80050a46:	a041                	j	80050ac6 <virt_to_phys+0x152>
    80050a48:	fec42783          	lw	a5,-20(s0)
    80050a4c:	0007871b          	sext.w	a4,a5
    80050a50:	4785                	li	a5,1
    80050a52:	02f71263          	bne	a4,a5,80050a76 <virt_to_phys+0x102>
    80050a56:	fc043783          	ld	a5,-64(s0)
    80050a5a:	01e79713          	slli	a4,a5,0x1e
    80050a5e:	fb843783          	ld	a5,-72(s0)
    80050a62:	07d6                	slli	a5,a5,0x15
    80050a64:	8f5d                	or	a4,a4,a5
    80050a66:	fa043683          	ld	a3,-96(s0)
    80050a6a:	001007b7          	lui	a5,0x100
    80050a6e:	17fd                	addi	a5,a5,-1
    80050a70:	8ff5                	and	a5,a5,a3
    80050a72:	8fd9                	or	a5,a5,a4
    80050a74:	a889                	j	80050ac6 <virt_to_phys+0x152>
    80050a76:	fec42783          	lw	a5,-20(s0)
    80050a7a:	0007871b          	sext.w	a4,a5
    80050a7e:	4789                	li	a5,2
    80050a80:	00f71e63          	bne	a4,a5,80050a9c <virt_to_phys+0x128>
    80050a84:	fc043783          	ld	a5,-64(s0)
    80050a88:	01e79713          	slli	a4,a5,0x1e
    80050a8c:	fa043683          	ld	a3,-96(s0)
    80050a90:	400007b7          	lui	a5,0x40000
    80050a94:	17fd                	addi	a5,a5,-1
    80050a96:	8ff5                	and	a5,a5,a3
    80050a98:	8fd9                	or	a5,a5,a4
    80050a9a:	a035                	j	80050ac6 <virt_to_phys+0x152>
    80050a9c:	57fd                	li	a5,-1
    80050a9e:	a025                	j	80050ac6 <virt_to_phys+0x152>
    80050aa0:	fe043783          	ld	a5,-32(s0)
    80050aa4:	00279713          	slli	a4,a5,0x2
    80050aa8:	77fd                	lui	a5,0xfffff
    80050aaa:	8ff9                	and	a5,a5,a4
    80050aac:	faf43423          	sd	a5,-88(s0)
    80050ab0:	fec42783          	lw	a5,-20(s0)
    80050ab4:	37fd                	addiw	a5,a5,-1
    80050ab6:	fef42623          	sw	a5,-20(s0)
    80050aba:	fec42783          	lw	a5,-20(s0)
    80050abe:	2781                	sext.w	a5,a5
    80050ac0:	ee07dce3          	bgez	a5,800509b8 <virt_to_phys+0x44>
    80050ac4:	57fd                	li	a5,-1
    80050ac6:	853e                	mv	a0,a5
    80050ac8:	6466                	ld	s0,88(sp)
    80050aca:	6125                	addi	sp,sp,96
    80050acc:	8082                	ret

0000000080050ace <mmu_init>:
    80050ace:	1141                	addi	sp,sp,-16
    80050ad0:	e406                	sd	ra,8(sp)
    80050ad2:	e022                	sd	s0,0(sp)
    80050ad4:	0800                	addi	s0,sp,16
    80050ad6:	00004797          	auipc	a5,0x4
    80050ada:	54278793          	addi	a5,a5,1346 # 80055018 <kernel_page_table>
    80050ade:	6388                	ld	a0,0(a5)
    80050ae0:	fffff597          	auipc	a1,0xfffff
    80050ae4:	52058593          	addi	a1,a1,1312 # 80050000 <_memory_start>
    80050ae8:	fffff617          	auipc	a2,0xfffff
    80050aec:	51860613          	addi	a2,a2,1304 # 80050000 <_memory_start>
    80050af0:	00004717          	auipc	a4,0x4
    80050af4:	b6e70713          	addi	a4,a4,-1170 # 8005465e <_text_end>
    80050af8:	fffff797          	auipc	a5,0xfffff
    80050afc:	50878793          	addi	a5,a5,1288 # 80050000 <_memory_start>
    80050b00:	40f707b3          	sub	a5,a4,a5
    80050b04:	4729                	li	a4,10
    80050b06:	86be                	mv	a3,a5
    80050b08:	adbff0ef          	jal	ra,800505e2 <mmu_map>
    80050b0c:	00004797          	auipc	a5,0x4
    80050b10:	50c78793          	addi	a5,a5,1292 # 80055018 <kernel_page_table>
    80050b14:	6388                	ld	a0,0(a5)
    80050b16:	00011597          	auipc	a1,0x11
    80050b1a:	4ea58593          	addi	a1,a1,1258 # 80062000 <starting_virt_addr>
    80050b1e:	00011617          	auipc	a2,0x11
    80050b22:	4e260613          	addi	a2,a2,1250 # 80062000 <starting_virt_addr>
    80050b26:	00011717          	auipc	a4,0x11
    80050b2a:	68a70713          	addi	a4,a4,1674 # 800621b0 <_data_end>
    80050b2e:	00011797          	auipc	a5,0x11
    80050b32:	4d278793          	addi	a5,a5,1234 # 80062000 <starting_virt_addr>
    80050b36:	40f707b3          	sub	a5,a4,a5
    80050b3a:	4719                	li	a4,6
    80050b3c:	86be                	mv	a3,a5
    80050b3e:	aa5ff0ef          	jal	ra,800505e2 <mmu_map>
    80050b42:	00004797          	auipc	a5,0x4
    80050b46:	4d678793          	addi	a5,a5,1238 # 80055018 <kernel_page_table>
    80050b4a:	6388                	ld	a0,0(a5)
    80050b4c:	00010597          	auipc	a1,0x10
    80050b50:	4b458593          	addi	a1,a1,1204 # 80061000 <_rodata_start>
    80050b54:	00010617          	auipc	a2,0x10
    80050b58:	4ac60613          	addi	a2,a2,1196 # 80061000 <_rodata_start>
    80050b5c:	00011717          	auipc	a4,0x11
    80050b60:	b2c70713          	addi	a4,a4,-1236 # 80061688 <_rodata_end>
    80050b64:	00010797          	auipc	a5,0x10
    80050b68:	49c78793          	addi	a5,a5,1180 # 80061000 <_rodata_start>
    80050b6c:	40f707b3          	sub	a5,a4,a5
    80050b70:	4709                	li	a4,2
    80050b72:	86be                	mv	a3,a5
    80050b74:	a6fff0ef          	jal	ra,800505e2 <mmu_map>
    80050b78:	00004797          	auipc	a5,0x4
    80050b7c:	4a078793          	addi	a5,a5,1184 # 80055018 <kernel_page_table>
    80050b80:	6388                	ld	a0,0(a5)
    80050b82:	00004597          	auipc	a1,0x4
    80050b86:	47e58593          	addi	a1,a1,1150 # 80055000 <imalloc_head>
    80050b8a:	00004617          	auipc	a2,0x4
    80050b8e:	47660613          	addi	a2,a2,1142 # 80055000 <imalloc_head>
    80050b92:	0000f717          	auipc	a4,0xf
    80050b96:	51670713          	addi	a4,a4,1302 # 800600a8 <_bss_end>
    80050b9a:	00004797          	auipc	a5,0x4
    80050b9e:	46678793          	addi	a5,a5,1126 # 80055000 <imalloc_head>
    80050ba2:	40f707b3          	sub	a5,a4,a5
    80050ba6:	4719                	li	a4,6
    80050ba8:	86be                	mv	a3,a5
    80050baa:	a39ff0ef          	jal	ra,800505e2 <mmu_map>
    80050bae:	00004797          	auipc	a5,0x4
    80050bb2:	46a78793          	addi	a5,a5,1130 # 80055018 <kernel_page_table>
    80050bb6:	6388                	ld	a0,0(a5)
    80050bb8:	00012597          	auipc	a1,0x12
    80050bbc:	44858593          	addi	a1,a1,1096 # 80063000 <_stack_start>
    80050bc0:	00012617          	auipc	a2,0x12
    80050bc4:	44060613          	addi	a2,a2,1088 # 80063000 <_stack_start>
    80050bc8:	00022717          	auipc	a4,0x22
    80050bcc:	43870713          	addi	a4,a4,1080 # 80073000 <_heap_start>
    80050bd0:	00012797          	auipc	a5,0x12
    80050bd4:	43078793          	addi	a5,a5,1072 # 80063000 <_stack_start>
    80050bd8:	40f707b3          	sub	a5,a4,a5
    80050bdc:	4719                	li	a4,6
    80050bde:	86be                	mv	a3,a5
    80050be0:	a03ff0ef          	jal	ra,800505e2 <mmu_map>
    80050be4:	00004797          	auipc	a5,0x4
    80050be8:	43478793          	addi	a5,a5,1076 # 80055018 <kernel_page_table>
    80050bec:	6388                	ld	a0,0(a5)
    80050bee:	00022597          	auipc	a1,0x22
    80050bf2:	41258593          	addi	a1,a1,1042 # 80073000 <_heap_start>
    80050bf6:	00022617          	auipc	a2,0x22
    80050bfa:	40a60613          	addi	a2,a2,1034 # 80073000 <_heap_start>
    80050bfe:	0dbff717          	auipc	a4,0xdbff
    80050c02:	40270713          	addi	a4,a4,1026 # 8dc50000 <_heap_end>
    80050c06:	00022797          	auipc	a5,0x22
    80050c0a:	3fa78793          	addi	a5,a5,1018 # 80073000 <_heap_start>
    80050c0e:	40f707b3          	sub	a5,a4,a5
    80050c12:	4719                	li	a4,6
    80050c14:	86be                	mv	a3,a5
    80050c16:	9cdff0ef          	jal	ra,800505e2 <mmu_map>
    80050c1a:	00004797          	auipc	a5,0x4
    80050c1e:	3fe78793          	addi	a5,a5,1022 # 80055018 <kernel_page_table>
    80050c22:	6388                	ld	a0,0(a5)
    80050c24:	4719                	li	a4,6
    80050c26:	003007b7          	lui	a5,0x300
    80050c2a:	fff78693          	addi	a3,a5,-1 # 2fffff <i+0x2fffdf>
    80050c2e:	0c000637          	lui	a2,0xc000
    80050c32:	0c0005b7          	lui	a1,0xc000
    80050c36:	9adff0ef          	jal	ra,800505e2 <mmu_map>
    80050c3a:	00004797          	auipc	a5,0x4
    80050c3e:	3de78793          	addi	a5,a5,990 # 80055018 <kernel_page_table>
    80050c42:	639c                	ld	a5,0(a5)
    80050c44:	4719                	li	a4,6
    80050c46:	100006b7          	lui	a3,0x10000
    80050c4a:	30000637          	lui	a2,0x30000
    80050c4e:	300005b7          	lui	a1,0x30000
    80050c52:	853e                	mv	a0,a5
    80050c54:	98fff0ef          	jal	ra,800505e2 <mmu_map>
    80050c58:	00004797          	auipc	a5,0x4
    80050c5c:	3c078793          	addi	a5,a5,960 # 80055018 <kernel_page_table>
    80050c60:	639c                	ld	a5,0(a5)
    80050c62:	4719                	li	a4,6
    80050c64:	100006b7          	lui	a3,0x10000
    80050c68:	40000637          	lui	a2,0x40000
    80050c6c:	400005b7          	lui	a1,0x40000
    80050c70:	853e                	mv	a0,a5
    80050c72:	971ff0ef          	jal	ra,800505e2 <mmu_map>
    80050c76:	00004797          	auipc	a5,0x4
    80050c7a:	3a278793          	addi	a5,a5,930 # 80055018 <kernel_page_table>
    80050c7e:	639c                	ld	a5,0(a5)
    80050c80:	00c7d713          	srli	a4,a5,0xc
    80050c84:	57fd                	li	a5,-1
    80050c86:	83d1                	srli	a5,a5,0x14
    80050c88:	8f7d                	and	a4,a4,a5
    80050c8a:	8ffff7b7          	lui	a5,0x8ffff
    80050c8e:	1782                	slli	a5,a5,0x20
    80050c90:	8fd9                	or	a5,a5,a4
    80050c92:	18079073          	csrw	satp,a5
    80050c96:	12000073          	sfence.vma
    80050c9a:	0001                	nop
    80050c9c:	60a2                	ld	ra,8(sp)
    80050c9e:	6402                	ld	s0,0(sp)
    80050ca0:	0141                	addi	sp,sp,16
    80050ca2:	8082                	ret

0000000080050ca4 <unhandled_irq>:
    80050ca4:	1101                	addi	sp,sp,-32
    80050ca6:	ec22                	sd	s0,24(sp)
    80050ca8:	1000                	addi	s0,sp,32
    80050caa:	fea43423          	sd	a0,-24(s0)
    80050cae:	0001                	nop
    80050cb0:	6462                	ld	s0,24(sp)
    80050cb2:	6105                	addi	sp,sp,32
    80050cb4:	8082                	ret

0000000080050cb6 <handle_irq>:
    80050cb6:	1101                	addi	sp,sp,-32
    80050cb8:	ec06                	sd	ra,24(sp)
    80050cba:	e822                	sd	s0,16(sp)
    80050cbc:	1000                	addi	s0,sp,32
    80050cbe:	fea43423          	sd	a0,-24(s0)
    80050cc2:	00011717          	auipc	a4,0x11
    80050cc6:	34e70713          	addi	a4,a4,846 # 80062010 <irq_table>
    80050cca:	fe843783          	ld	a5,-24(s0)
    80050cce:	078e                	slli	a5,a5,0x3
    80050cd0:	97ba                	add	a5,a5,a4
    80050cd2:	639c                	ld	a5,0(a5)
    80050cd4:	fe843503          	ld	a0,-24(s0)
    80050cd8:	9782                	jalr	a5
    80050cda:	0001                	nop
    80050cdc:	60e2                	ld	ra,24(sp)
    80050cde:	6442                	ld	s0,16(sp)
    80050ce0:	6105                	addi	sp,sp,32
    80050ce2:	8082                	ret

0000000080050ce4 <sup_trap_handler>:
    80050ce4:	1101                	addi	sp,sp,-32
    80050ce6:	ec06                	sd	ra,24(sp)
    80050ce8:	e822                	sd	s0,16(sp)
    80050cea:	1000                	addi	s0,sp,32
    80050cec:	142027f3          	csrr	a5,scause
    80050cf0:	fef43423          	sd	a5,-24(s0)
    80050cf4:	fe843783          	ld	a5,-24(s0)
    80050cf8:	93fd                	srli	a5,a5,0x3f
    80050cfa:	fef42223          	sw	a5,-28(s0)
    80050cfe:	fe843783          	ld	a5,-24(s0)
    80050d02:	0ff7f793          	andi	a5,a5,255
    80050d06:	fef43423          	sd	a5,-24(s0)
    80050d0a:	fe442783          	lw	a5,-28(s0)
    80050d0e:	2781                	sext.w	a5,a5
    80050d10:	cb81                	beqz	a5,80050d20 <sup_trap_handler+0x3c>
    80050d12:	fe843783          	ld	a5,-24(s0)
    80050d16:	07c1                	addi	a5,a5,16
    80050d18:	853e                	mv	a0,a5
    80050d1a:	f9dff0ef          	jal	ra,80050cb6 <handle_irq>
    80050d1e:	a029                	j	80050d28 <sup_trap_handler+0x44>
    80050d20:	fe843503          	ld	a0,-24(s0)
    80050d24:	f93ff0ef          	jal	ra,80050cb6 <handle_irq>
    80050d28:	0001                	nop
    80050d2a:	60e2                	ld	ra,24(sp)
    80050d2c:	6442                	ld	s0,16(sp)
    80050d2e:	6105                	addi	sp,sp,32
    80050d30:	8082                	ret

0000000080050d32 <virt_rng_drive_init>:
    80050d32:	711d                	addi	sp,sp,-96
    80050d34:	ec86                	sd	ra,88(sp)
    80050d36:	e8a2                	sd	s0,80(sp)
    80050d38:	e4a6                	sd	s1,72(sp)
    80050d3a:	1080                	addi	s0,sp,96
    80050d3c:	faa43c23          	sd	a0,-72(s0)
    80050d40:	fab43823          	sd	a1,-80(s0)
    80050d44:	87b2                	mv	a5,a2
    80050d46:	faf42623          	sw	a5,-84(s0)
    80050d4a:	fc042e23          	sw	zero,-36(s0)
    80050d4e:	a0c1                	j	80050e0e <virt_rng_drive_init+0xdc>
    80050d50:	fdc42783          	lw	a5,-36(s0)
    80050d54:	078e                	slli	a5,a5,0x3
    80050d56:	fb043703          	ld	a4,-80(s0)
    80050d5a:	97ba                	add	a5,a5,a4
    80050d5c:	639c                	ld	a5,0(a5)
    80050d5e:	fcf43423          	sd	a5,-56(s0)
    80050d62:	fb843783          	ld	a5,-72(s0)
    80050d66:	0007d703          	lhu	a4,0(a5) # ffffffff8ffff000 <_heap_end+0xffffffff023af000>
    80050d6a:	fb843783          	ld	a5,-72(s0)
    80050d6e:	0027d683          	lhu	a3,2(a5)
    80050d72:	fc843783          	ld	a5,-56(s0)
    80050d76:	0047c783          	lbu	a5,4(a5)
    80050d7a:	863e                	mv	a2,a5
    80050d7c:	85b6                	mv	a1,a3
    80050d7e:	853a                	mv	a0,a4
    80050d80:	736010ef          	jal	ra,800524b6 <find_bar>
    80050d84:	fca43023          	sd	a0,-64(s0)
    80050d88:	fc043783          	ld	a5,-64(s0)
    80050d8c:	9bc1                	andi	a5,a5,-16
    80050d8e:	fcf43023          	sd	a5,-64(s0)
    80050d92:	fc843783          	ld	a5,-56(s0)
    80050d96:	479c                	lw	a5,8(a5)
    80050d98:	1782                	slli	a5,a5,0x20
    80050d9a:	9381                	srli	a5,a5,0x20
    80050d9c:	fc043703          	ld	a4,-64(s0)
    80050da0:	97ba                	add	a5,a5,a4
    80050da2:	fcf43023          	sd	a5,-64(s0)
    80050da6:	fc843783          	ld	a5,-56(s0)
    80050daa:	0037c783          	lbu	a5,3(a5)
    80050dae:	2781                	sext.w	a5,a5
    80050db0:	86be                	mv	a3,a5
    80050db2:	4715                	li	a4,5
    80050db4:	04d76763          	bltu	a4,a3,80050e02 <virt_rng_drive_init+0xd0>
    80050db8:	00279713          	slli	a4,a5,0x2
    80050dbc:	00010797          	auipc	a5,0x10
    80050dc0:	2e078793          	addi	a5,a5,736 # 8006109c <_rodata_start+0x9c>
    80050dc4:	97ba                	add	a5,a5,a4
    80050dc6:	439c                	lw	a5,0(a5)
    80050dc8:	0007871b          	sext.w	a4,a5
    80050dcc:	00010797          	auipc	a5,0x10
    80050dd0:	2d078793          	addi	a5,a5,720 # 8006109c <_rodata_start+0x9c>
    80050dd4:	97ba                	add	a5,a5,a4
    80050dd6:	8782                	jr	a5
    80050dd8:	fb843783          	ld	a5,-72(s0)
    80050ddc:	7b9c                	ld	a5,48(a5)
    80050dde:	fc043703          	ld	a4,-64(s0)
    80050de2:	e398                	sd	a4,0(a5)
    80050de4:	a005                	j	80050e04 <virt_rng_drive_init+0xd2>
    80050de6:	fb843783          	ld	a5,-72(s0)
    80050dea:	7b9c                	ld	a5,48(a5)
    80050dec:	fc843703          	ld	a4,-56(s0)
    80050df0:	e798                	sd	a4,8(a5)
    80050df2:	a809                	j	80050e04 <virt_rng_drive_init+0xd2>
    80050df4:	fb843783          	ld	a5,-72(s0)
    80050df8:	7b9c                	ld	a5,48(a5)
    80050dfa:	fc043703          	ld	a4,-64(s0)
    80050dfe:	eb98                	sd	a4,16(a5)
    80050e00:	a011                	j	80050e04 <virt_rng_drive_init+0xd2>
    80050e02:	0001                	nop
    80050e04:	fdc42783          	lw	a5,-36(s0)
    80050e08:	2785                	addiw	a5,a5,1
    80050e0a:	fcf42e23          	sw	a5,-36(s0)
    80050e0e:	fdc42703          	lw	a4,-36(s0)
    80050e12:	fac42783          	lw	a5,-84(s0)
    80050e16:	2701                	sext.w	a4,a4
    80050e18:	2781                	sext.w	a5,a5
    80050e1a:	f2f74be3          	blt	a4,a5,80050d50 <virt_rng_drive_init+0x1e>
    80050e1e:	fb843783          	ld	a5,-72(s0)
    80050e22:	7b9c                	ld	a5,48(a5)
    80050e24:	639c                	ld	a5,0(a5)
    80050e26:	00078a23          	sb	zero,20(a5)
    80050e2a:	fb843783          	ld	a5,-72(s0)
    80050e2e:	7b9c                	ld	a5,48(a5)
    80050e30:	639c                	ld	a5,0(a5)
    80050e32:	4705                	li	a4,1
    80050e34:	00e78a23          	sb	a4,20(a5)
    80050e38:	fb843783          	ld	a5,-72(s0)
    80050e3c:	7b9c                	ld	a5,48(a5)
    80050e3e:	639c                	ld	a5,0(a5)
    80050e40:	0147c783          	lbu	a5,20(a5)
    80050e44:	0ff7f713          	andi	a4,a5,255
    80050e48:	fb843783          	ld	a5,-72(s0)
    80050e4c:	7b9c                	ld	a5,48(a5)
    80050e4e:	639c                	ld	a5,0(a5)
    80050e50:	00276713          	ori	a4,a4,2
    80050e54:	0ff77713          	andi	a4,a4,255
    80050e58:	00e78a23          	sb	a4,20(a5)
    80050e5c:	fb843783          	ld	a5,-72(s0)
    80050e60:	7b9c                	ld	a5,48(a5)
    80050e62:	639c                	ld	a5,0(a5)
    80050e64:	0147c783          	lbu	a5,20(a5)
    80050e68:	0ff7f713          	andi	a4,a5,255
    80050e6c:	fb843783          	ld	a5,-72(s0)
    80050e70:	7b9c                	ld	a5,48(a5)
    80050e72:	639c                	ld	a5,0(a5)
    80050e74:	00876713          	ori	a4,a4,8
    80050e78:	0ff77713          	andi	a4,a4,255
    80050e7c:	00e78a23          	sb	a4,20(a5)
    80050e80:	fb843783          	ld	a5,-72(s0)
    80050e84:	7b9c                	ld	a5,48(a5)
    80050e86:	639c                	ld	a5,0(a5)
    80050e88:	00079b23          	sh	zero,22(a5)
    80050e8c:	fb843783          	ld	a5,-72(s0)
    80050e90:	7b9c                	ld	a5,48(a5)
    80050e92:	639c                	ld	a5,0(a5)
    80050e94:	0187d783          	lhu	a5,24(a5)
    80050e98:	fcf41d23          	sh	a5,-38(s0)
    80050e9c:	fda45783          	lhu	a5,-38(s0)
    80050ea0:	2781                	sext.w	a5,a5
    80050ea2:	0047979b          	slliw	a5,a5,0x4
    80050ea6:	2781                	sext.w	a5,a5
    80050ea8:	853e                	mv	a0,a5
    80050eaa:	a94ff0ef          	jal	ra,8005013e <imalloc>
    80050eae:	87aa                	mv	a5,a0
    80050eb0:	fcf43823          	sd	a5,-48(s0)
    80050eb4:	fb843783          	ld	a5,-72(s0)
    80050eb8:	7b9c                	ld	a5,48(a5)
    80050eba:	fd043703          	ld	a4,-48(s0)
    80050ebe:	f398                	sd	a4,32(a5)
    80050ec0:	00004797          	auipc	a5,0x4
    80050ec4:	15878793          	addi	a5,a5,344 # 80055018 <kernel_page_table>
    80050ec8:	6398                	ld	a4,0(a5)
    80050eca:	fb843783          	ld	a5,-72(s0)
    80050ece:	7b9c                	ld	a5,48(a5)
    80050ed0:	6384                	ld	s1,0(a5)
    80050ed2:	fd043583          	ld	a1,-48(s0)
    80050ed6:	853a                	mv	a0,a4
    80050ed8:	a9dff0ef          	jal	ra,80050974 <virt_to_phys>
    80050edc:	87aa                	mv	a5,a0
    80050ede:	f09c                	sd	a5,32(s1)
    80050ee0:	fda45783          	lhu	a5,-38(s0)
    80050ee4:	2781                	sext.w	a5,a5
    80050ee6:	278d                	addiw	a5,a5,3
    80050ee8:	2781                	sext.w	a5,a5
    80050eea:	0017979b          	slliw	a5,a5,0x1
    80050eee:	2781                	sext.w	a5,a5
    80050ef0:	853e                	mv	a0,a5
    80050ef2:	a4cff0ef          	jal	ra,8005013e <imalloc>
    80050ef6:	87aa                	mv	a5,a0
    80050ef8:	fcf43823          	sd	a5,-48(s0)
    80050efc:	fb843783          	ld	a5,-72(s0)
    80050f00:	7b9c                	ld	a5,48(a5)
    80050f02:	fd043703          	ld	a4,-48(s0)
    80050f06:	f798                	sd	a4,40(a5)
    80050f08:	00004797          	auipc	a5,0x4
    80050f0c:	11078793          	addi	a5,a5,272 # 80055018 <kernel_page_table>
    80050f10:	6398                	ld	a4,0(a5)
    80050f12:	fb843783          	ld	a5,-72(s0)
    80050f16:	7b9c                	ld	a5,48(a5)
    80050f18:	6384                	ld	s1,0(a5)
    80050f1a:	fd043583          	ld	a1,-48(s0)
    80050f1e:	853a                	mv	a0,a4
    80050f20:	a55ff0ef          	jal	ra,80050974 <virt_to_phys>
    80050f24:	87aa                	mv	a5,a0
    80050f26:	f49c                	sd	a5,40(s1)
    80050f28:	fda45783          	lhu	a5,-38(s0)
    80050f2c:	2781                	sext.w	a5,a5
    80050f2e:	0037979b          	slliw	a5,a5,0x3
    80050f32:	2781                	sext.w	a5,a5
    80050f34:	2799                	addiw	a5,a5,6
    80050f36:	2781                	sext.w	a5,a5
    80050f38:	853e                	mv	a0,a5
    80050f3a:	a04ff0ef          	jal	ra,8005013e <imalloc>
    80050f3e:	87aa                	mv	a5,a0
    80050f40:	fcf43823          	sd	a5,-48(s0)
    80050f44:	fb843783          	ld	a5,-72(s0)
    80050f48:	7b9c                	ld	a5,48(a5)
    80050f4a:	fd043703          	ld	a4,-48(s0)
    80050f4e:	fb98                	sd	a4,48(a5)
    80050f50:	00004797          	auipc	a5,0x4
    80050f54:	0c878793          	addi	a5,a5,200 # 80055018 <kernel_page_table>
    80050f58:	6398                	ld	a4,0(a5)
    80050f5a:	fb843783          	ld	a5,-72(s0)
    80050f5e:	7b9c                	ld	a5,48(a5)
    80050f60:	6384                	ld	s1,0(a5)
    80050f62:	fd043583          	ld	a1,-48(s0)
    80050f66:	853a                	mv	a0,a4
    80050f68:	a0dff0ef          	jal	ra,80050974 <virt_to_phys>
    80050f6c:	87aa                	mv	a5,a0
    80050f6e:	f89c                	sd	a5,48(s1)
    80050f70:	fb843783          	ld	a5,-72(s0)
    80050f74:	7b9c                	ld	a5,48(a5)
    80050f76:	639c                	ld	a5,0(a5)
    80050f78:	4705                	li	a4,1
    80050f7a:	00e79e23          	sh	a4,28(a5)
    80050f7e:	fb843783          	ld	a5,-72(s0)
    80050f82:	7b9c                	ld	a5,48(a5)
    80050f84:	639c                	ld	a5,0(a5)
    80050f86:	0147c783          	lbu	a5,20(a5)
    80050f8a:	0ff7f713          	andi	a4,a5,255
    80050f8e:	fb843783          	ld	a5,-72(s0)
    80050f92:	7b9c                	ld	a5,48(a5)
    80050f94:	639c                	ld	a5,0(a5)
    80050f96:	00476713          	ori	a4,a4,4
    80050f9a:	0ff77713          	andi	a4,a4,255
    80050f9e:	00e78a23          	sb	a4,20(a5)
    80050fa2:	0001                	nop
    80050fa4:	60e6                	ld	ra,88(sp)
    80050fa6:	6446                	ld	s0,80(sp)
    80050fa8:	64a6                	ld	s1,72(sp)
    80050faa:	6125                	addi	sp,sp,96
    80050fac:	8082                	ret

0000000080050fae <virt_rng_drive>:
    80050fae:	7139                	addi	sp,sp,-64
    80050fb0:	fc06                	sd	ra,56(sp)
    80050fb2:	f822                	sd	s0,48(sp)
    80050fb4:	0080                	addi	s0,sp,64
    80050fb6:	fca43423          	sd	a0,-56(s0)
    80050fba:	87ae                	mv	a5,a1
    80050fbc:	fcf41323          	sh	a5,-58(s0)
    80050fc0:	6785                	lui	a5,0x1
    80050fc2:	04478593          	addi	a1,a5,68 # 1044 <i+0x1024>
    80050fc6:	6789                	lui	a5,0x2
    80050fc8:	af478513          	addi	a0,a5,-1292 # 1af4 <i+0x1ad4>
    80050fcc:	c78ff0ef          	jal	ra,80050444 <find_driver>
    80050fd0:	fea43423          	sd	a0,-24(s0)
    80050fd4:	fe843783          	ld	a5,-24(s0)
    80050fd8:	0047d783          	lhu	a5,4(a5)
    80050fdc:	fef42223          	sw	a5,-28(s0)
    80050fe0:	fe843783          	ld	a5,-24(s0)
    80050fe4:	7b9c                	ld	a5,48(a5)
    80050fe6:	639c                	ld	a5,0(a5)
    80050fe8:	0187d783          	lhu	a5,24(a5)
    80050fec:	17c2                	slli	a5,a5,0x30
    80050fee:	93c1                	srli	a5,a5,0x30
    80050ff0:	fef42023          	sw	a5,-32(s0)
    80050ff4:	00004797          	auipc	a5,0x4
    80050ff8:	02478793          	addi	a5,a5,36 # 80055018 <kernel_page_table>
    80050ffc:	639c                	ld	a5,0(a5)
    80050ffe:	fc843703          	ld	a4,-56(s0)
    80051002:	85ba                	mv	a1,a4
    80051004:	853e                	mv	a0,a5
    80051006:	96fff0ef          	jal	ra,80050974 <virt_to_phys>
    8005100a:	fca43c23          	sd	a0,-40(s0)
    8005100e:	fe843783          	ld	a5,-24(s0)
    80051012:	7b9c                	ld	a5,48(a5)
    80051014:	7398                	ld	a4,32(a5)
    80051016:	fe446783          	lwu	a5,-28(s0)
    8005101a:	0792                	slli	a5,a5,0x4
    8005101c:	97ba                	add	a5,a5,a4
    8005101e:	fd843703          	ld	a4,-40(s0)
    80051022:	e398                	sd	a4,0(a5)
    80051024:	fe843783          	ld	a5,-24(s0)
    80051028:	7b9c                	ld	a5,48(a5)
    8005102a:	7398                	ld	a4,32(a5)
    8005102c:	fe446783          	lwu	a5,-28(s0)
    80051030:	0792                	slli	a5,a5,0x4
    80051032:	97ba                	add	a5,a5,a4
    80051034:	fc645703          	lhu	a4,-58(s0)
    80051038:	2701                	sext.w	a4,a4
    8005103a:	c798                	sw	a4,8(a5)
    8005103c:	fe843783          	ld	a5,-24(s0)
    80051040:	7b9c                	ld	a5,48(a5)
    80051042:	7398                	ld	a4,32(a5)
    80051044:	fe446783          	lwu	a5,-28(s0)
    80051048:	0792                	slli	a5,a5,0x4
    8005104a:	97ba                	add	a5,a5,a4
    8005104c:	4709                	li	a4,2
    8005104e:	00e79623          	sh	a4,12(a5)
    80051052:	fe843783          	ld	a5,-24(s0)
    80051056:	7b9c                	ld	a5,48(a5)
    80051058:	7398                	ld	a4,32(a5)
    8005105a:	fe446783          	lwu	a5,-28(s0)
    8005105e:	0792                	slli	a5,a5,0x4
    80051060:	97ba                	add	a5,a5,a4
    80051062:	00079723          	sh	zero,14(a5)
    80051066:	fe843783          	ld	a5,-24(s0)
    8005106a:	7b9c                	ld	a5,48(a5)
    8005106c:	7794                	ld	a3,40(a5)
    8005106e:	fe843783          	ld	a5,-24(s0)
    80051072:	7b9c                	ld	a5,48(a5)
    80051074:	779c                	ld	a5,40(a5)
    80051076:	0027d783          	lhu	a5,2(a5)
    8005107a:	2781                	sext.w	a5,a5
    8005107c:	873e                	mv	a4,a5
    8005107e:	fe042783          	lw	a5,-32(s0)
    80051082:	02f777bb          	remuw	a5,a4,a5
    80051086:	2781                	sext.w	a5,a5
    80051088:	fe442703          	lw	a4,-28(s0)
    8005108c:	1742                	slli	a4,a4,0x30
    8005108e:	9341                	srli	a4,a4,0x30
    80051090:	1782                	slli	a5,a5,0x20
    80051092:	9381                	srli	a5,a5,0x20
    80051094:	0786                	slli	a5,a5,0x1
    80051096:	97b6                	add	a5,a5,a3
    80051098:	00e79223          	sh	a4,4(a5)
    8005109c:	fe843783          	ld	a5,-24(s0)
    800510a0:	7b9c                	ld	a5,48(a5)
    800510a2:	779c                	ld	a5,40(a5)
    800510a4:	0027d703          	lhu	a4,2(a5)
    800510a8:	fe843783          	ld	a5,-24(s0)
    800510ac:	7b9c                	ld	a5,48(a5)
    800510ae:	779c                	ld	a5,40(a5)
    800510b0:	2705                	addiw	a4,a4,1
    800510b2:	1742                	slli	a4,a4,0x30
    800510b4:	9341                	srli	a4,a4,0x30
    800510b6:	00e79123          	sh	a4,2(a5)
    800510ba:	fe843783          	ld	a5,-24(s0)
    800510be:	0047d783          	lhu	a5,4(a5)
    800510c2:	2781                	sext.w	a5,a5
    800510c4:	2785                	addiw	a5,a5,1
    800510c6:	2781                	sext.w	a5,a5
    800510c8:	2781                	sext.w	a5,a5
    800510ca:	873e                	mv	a4,a5
    800510cc:	fe042783          	lw	a5,-32(s0)
    800510d0:	02f777bb          	remuw	a5,a4,a5
    800510d4:	2781                	sext.w	a5,a5
    800510d6:	03079713          	slli	a4,a5,0x30
    800510da:	9341                	srli	a4,a4,0x30
    800510dc:	fe843783          	ld	a5,-24(s0)
    800510e0:	00e79223          	sh	a4,4(a5)
    800510e4:	fe843783          	ld	a5,-24(s0)
    800510e8:	7b9c                	ld	a5,48(a5)
    800510ea:	679c                	ld	a5,8(a5)
    800510ec:	0047c783          	lbu	a5,4(a5)
    800510f0:	0ff7f793          	andi	a5,a5,255
    800510f4:	863e                	mv	a2,a5
    800510f6:	6785                	lui	a5,0x1
    800510f8:	04478593          	addi	a1,a5,68 # 1044 <i+0x1024>
    800510fc:	6789                	lui	a5,0x2
    800510fe:	af478513          	addi	a0,a5,-1292 # 1af4 <i+0x1ad4>
    80051102:	3b4010ef          	jal	ra,800524b6 <find_bar>
    80051106:	fca43823          	sd	a0,-48(s0)
    8005110a:	fd043783          	ld	a5,-48(s0)
    8005110e:	9bc1                	andi	a5,a5,-16
    80051110:	fcf43823          	sd	a5,-48(s0)
    80051114:	fe843783          	ld	a5,-24(s0)
    80051118:	7b9c                	ld	a5,48(a5)
    8005111a:	679c                	ld	a5,8(a5)
    8005111c:	479c                	lw	a5,8(a5)
    8005111e:	2781                	sext.w	a5,a5
    80051120:	1782                	slli	a5,a5,0x20
    80051122:	9381                	srli	a5,a5,0x20
    80051124:	fd043703          	ld	a4,-48(s0)
    80051128:	97ba                	add	a5,a5,a4
    8005112a:	fcf43823          	sd	a5,-48(s0)
    8005112e:	fe843783          	ld	a5,-24(s0)
    80051132:	7b9c                	ld	a5,48(a5)
    80051134:	639c                	ld	a5,0(a5)
    80051136:	01e7d783          	lhu	a5,30(a5)
    8005113a:	17c2                	slli	a5,a5,0x30
    8005113c:	93c1                	srli	a5,a5,0x30
    8005113e:	0007871b          	sext.w	a4,a5
    80051142:	fe843783          	ld	a5,-24(s0)
    80051146:	7b9c                	ld	a5,48(a5)
    80051148:	679c                	ld	a5,8(a5)
    8005114a:	4b9c                	lw	a5,16(a5)
    8005114c:	2781                	sext.w	a5,a5
    8005114e:	02f707bb          	mulw	a5,a4,a5
    80051152:	2781                	sext.w	a5,a5
    80051154:	02079713          	slli	a4,a5,0x20
    80051158:	9301                	srli	a4,a4,0x20
    8005115a:	fd043783          	ld	a5,-48(s0)
    8005115e:	97ba                	add	a5,a5,a4
    80051160:	0007a023          	sw	zero,0(a5)
    80051164:	a019                	j	8005116a <virt_rng_drive+0x1bc>
    80051166:	10500073          	wfi
    8005116a:	fe843783          	ld	a5,-24(s0)
    8005116e:	7b9c                	ld	a5,48(a5)
    80051170:	779c                	ld	a5,40(a5)
    80051172:	0027d703          	lhu	a4,2(a5)
    80051176:	fe843783          	ld	a5,-24(s0)
    8005117a:	7b9c                	ld	a5,48(a5)
    8005117c:	7b9c                	ld	a5,48(a5)
    8005117e:	0027d783          	lhu	a5,2(a5)
    80051182:	2701                	sext.w	a4,a4
    80051184:	2781                	sext.w	a5,a5
    80051186:	fef710e3          	bne	a4,a5,80051166 <virt_rng_drive+0x1b8>
    8005118a:	4785                	li	a5,1
    8005118c:	853e                	mv	a0,a5
    8005118e:	70e2                	ld	ra,56(sp)
    80051190:	7442                	ld	s0,48(sp)
    80051192:	6121                	addi	sp,sp,64
    80051194:	8082                	ret

0000000080051196 <rng>:
    80051196:	1101                	addi	sp,sp,-32
    80051198:	ec06                	sd	ra,24(sp)
    8005119a:	e822                	sd	s0,16(sp)
    8005119c:	1000                	addi	s0,sp,32
    8005119e:	fea43423          	sd	a0,-24(s0)
    800511a2:	87ae                	mv	a5,a1
    800511a4:	fef41323          	sh	a5,-26(s0)
    800511a8:	fe645783          	lhu	a5,-26(s0)
    800511ac:	85be                	mv	a1,a5
    800511ae:	fe843503          	ld	a0,-24(s0)
    800511b2:	dfdff0ef          	jal	ra,80050fae <virt_rng_drive>
    800511b6:	0001                	nop
    800511b8:	60e2                	ld	ra,24(sp)
    800511ba:	6442                	ld	s0,16(sp)
    800511bc:	6105                	addi	sp,sp,32
    800511be:	8082                	ret

00000000800511c0 <virt_block_drive_init>:
    800511c0:	711d                	addi	sp,sp,-96
    800511c2:	ec86                	sd	ra,88(sp)
    800511c4:	e8a2                	sd	s0,80(sp)
    800511c6:	e4a6                	sd	s1,72(sp)
    800511c8:	1080                	addi	s0,sp,96
    800511ca:	faa43c23          	sd	a0,-72(s0)
    800511ce:	fab43823          	sd	a1,-80(s0)
    800511d2:	87b2                	mv	a5,a2
    800511d4:	faf42623          	sw	a5,-84(s0)
    800511d8:	fc042e23          	sw	zero,-36(s0)
    800511dc:	a0f9                	j	800512aa <virt_block_drive_init+0xea>
    800511de:	fdc42783          	lw	a5,-36(s0)
    800511e2:	078e                	slli	a5,a5,0x3
    800511e4:	fb043703          	ld	a4,-80(s0)
    800511e8:	97ba                	add	a5,a5,a4
    800511ea:	639c                	ld	a5,0(a5)
    800511ec:	fcf43423          	sd	a5,-56(s0)
    800511f0:	fb843783          	ld	a5,-72(s0)
    800511f4:	0007d703          	lhu	a4,0(a5)
    800511f8:	fb843783          	ld	a5,-72(s0)
    800511fc:	0027d683          	lhu	a3,2(a5)
    80051200:	fc843783          	ld	a5,-56(s0)
    80051204:	0047c783          	lbu	a5,4(a5)
    80051208:	863e                	mv	a2,a5
    8005120a:	85b6                	mv	a1,a3
    8005120c:	853a                	mv	a0,a4
    8005120e:	2a8010ef          	jal	ra,800524b6 <find_bar>
    80051212:	fca43023          	sd	a0,-64(s0)
    80051216:	fc043783          	ld	a5,-64(s0)
    8005121a:	9bc1                	andi	a5,a5,-16
    8005121c:	fcf43023          	sd	a5,-64(s0)
    80051220:	fc843783          	ld	a5,-56(s0)
    80051224:	479c                	lw	a5,8(a5)
    80051226:	1782                	slli	a5,a5,0x20
    80051228:	9381                	srli	a5,a5,0x20
    8005122a:	fc043703          	ld	a4,-64(s0)
    8005122e:	97ba                	add	a5,a5,a4
    80051230:	fcf43023          	sd	a5,-64(s0)
    80051234:	fc843783          	ld	a5,-56(s0)
    80051238:	0037c783          	lbu	a5,3(a5)
    8005123c:	2781                	sext.w	a5,a5
    8005123e:	86be                	mv	a3,a5
    80051240:	4715                	li	a4,5
    80051242:	04d76e63          	bltu	a4,a3,8005129e <virt_block_drive_init+0xde>
    80051246:	00279713          	slli	a4,a5,0x2
    8005124a:	00010797          	auipc	a5,0x10
    8005124e:	e6e78793          	addi	a5,a5,-402 # 800610b8 <_rodata_start+0xb8>
    80051252:	97ba                	add	a5,a5,a4
    80051254:	439c                	lw	a5,0(a5)
    80051256:	0007871b          	sext.w	a4,a5
    8005125a:	00010797          	auipc	a5,0x10
    8005125e:	e5e78793          	addi	a5,a5,-418 # 800610b8 <_rodata_start+0xb8>
    80051262:	97ba                	add	a5,a5,a4
    80051264:	8782                	jr	a5
    80051266:	fb843783          	ld	a5,-72(s0)
    8005126a:	7b9c                	ld	a5,48(a5)
    8005126c:	fc043703          	ld	a4,-64(s0)
    80051270:	e398                	sd	a4,0(a5)
    80051272:	a03d                	j	800512a0 <virt_block_drive_init+0xe0>
    80051274:	fb843783          	ld	a5,-72(s0)
    80051278:	7b9c                	ld	a5,48(a5)
    8005127a:	fc843703          	ld	a4,-56(s0)
    8005127e:	e798                	sd	a4,8(a5)
    80051280:	a005                	j	800512a0 <virt_block_drive_init+0xe0>
    80051282:	fb843783          	ld	a5,-72(s0)
    80051286:	7b9c                	ld	a5,48(a5)
    80051288:	fc043703          	ld	a4,-64(s0)
    8005128c:	eb98                	sd	a4,16(a5)
    8005128e:	a809                	j	800512a0 <virt_block_drive_init+0xe0>
    80051290:	fb843783          	ld	a5,-72(s0)
    80051294:	7b9c                	ld	a5,48(a5)
    80051296:	fc043703          	ld	a4,-64(s0)
    8005129a:	ef98                	sd	a4,24(a5)
    8005129c:	a011                	j	800512a0 <virt_block_drive_init+0xe0>
    8005129e:	0001                	nop
    800512a0:	fdc42783          	lw	a5,-36(s0)
    800512a4:	2785                	addiw	a5,a5,1
    800512a6:	fcf42e23          	sw	a5,-36(s0)
    800512aa:	fdc42703          	lw	a4,-36(s0)
    800512ae:	fac42783          	lw	a5,-84(s0)
    800512b2:	2701                	sext.w	a4,a4
    800512b4:	2781                	sext.w	a5,a5
    800512b6:	f2f744e3          	blt	a4,a5,800511de <virt_block_drive_init+0x1e>
    800512ba:	fb843783          	ld	a5,-72(s0)
    800512be:	7b9c                	ld	a5,48(a5)
    800512c0:	639c                	ld	a5,0(a5)
    800512c2:	00078a23          	sb	zero,20(a5)
    800512c6:	fb843783          	ld	a5,-72(s0)
    800512ca:	7b9c                	ld	a5,48(a5)
    800512cc:	639c                	ld	a5,0(a5)
    800512ce:	4705                	li	a4,1
    800512d0:	00e78a23          	sb	a4,20(a5)
    800512d4:	fb843783          	ld	a5,-72(s0)
    800512d8:	7b9c                	ld	a5,48(a5)
    800512da:	639c                	ld	a5,0(a5)
    800512dc:	0147c783          	lbu	a5,20(a5)
    800512e0:	0ff7f713          	andi	a4,a5,255
    800512e4:	fb843783          	ld	a5,-72(s0)
    800512e8:	7b9c                	ld	a5,48(a5)
    800512ea:	639c                	ld	a5,0(a5)
    800512ec:	00276713          	ori	a4,a4,2
    800512f0:	0ff77713          	andi	a4,a4,255
    800512f4:	00e78a23          	sb	a4,20(a5)
    800512f8:	fb843783          	ld	a5,-72(s0)
    800512fc:	7b9c                	ld	a5,48(a5)
    800512fe:	639c                	ld	a5,0(a5)
    80051300:	0147c783          	lbu	a5,20(a5)
    80051304:	0ff7f713          	andi	a4,a5,255
    80051308:	fb843783          	ld	a5,-72(s0)
    8005130c:	7b9c                	ld	a5,48(a5)
    8005130e:	639c                	ld	a5,0(a5)
    80051310:	00876713          	ori	a4,a4,8
    80051314:	0ff77713          	andi	a4,a4,255
    80051318:	00e78a23          	sb	a4,20(a5)
    8005131c:	fb843783          	ld	a5,-72(s0)
    80051320:	7b9c                	ld	a5,48(a5)
    80051322:	639c                	ld	a5,0(a5)
    80051324:	00079b23          	sh	zero,22(a5)
    80051328:	fb843783          	ld	a5,-72(s0)
    8005132c:	7b9c                	ld	a5,48(a5)
    8005132e:	639c                	ld	a5,0(a5)
    80051330:	0187d783          	lhu	a5,24(a5)
    80051334:	fcf41d23          	sh	a5,-38(s0)
    80051338:	fda45783          	lhu	a5,-38(s0)
    8005133c:	2781                	sext.w	a5,a5
    8005133e:	0047979b          	slliw	a5,a5,0x4
    80051342:	2781                	sext.w	a5,a5
    80051344:	853e                	mv	a0,a5
    80051346:	df9fe0ef          	jal	ra,8005013e <imalloc>
    8005134a:	87aa                	mv	a5,a0
    8005134c:	fcf43823          	sd	a5,-48(s0)
    80051350:	fb843783          	ld	a5,-72(s0)
    80051354:	7b9c                	ld	a5,48(a5)
    80051356:	fd043703          	ld	a4,-48(s0)
    8005135a:	f398                	sd	a4,32(a5)
    8005135c:	00004797          	auipc	a5,0x4
    80051360:	cbc78793          	addi	a5,a5,-836 # 80055018 <kernel_page_table>
    80051364:	6398                	ld	a4,0(a5)
    80051366:	fb843783          	ld	a5,-72(s0)
    8005136a:	7b9c                	ld	a5,48(a5)
    8005136c:	6384                	ld	s1,0(a5)
    8005136e:	fd043583          	ld	a1,-48(s0)
    80051372:	853a                	mv	a0,a4
    80051374:	e00ff0ef          	jal	ra,80050974 <virt_to_phys>
    80051378:	87aa                	mv	a5,a0
    8005137a:	f09c                	sd	a5,32(s1)
    8005137c:	fda45783          	lhu	a5,-38(s0)
    80051380:	2781                	sext.w	a5,a5
    80051382:	278d                	addiw	a5,a5,3
    80051384:	2781                	sext.w	a5,a5
    80051386:	0017979b          	slliw	a5,a5,0x1
    8005138a:	2781                	sext.w	a5,a5
    8005138c:	853e                	mv	a0,a5
    8005138e:	db1fe0ef          	jal	ra,8005013e <imalloc>
    80051392:	87aa                	mv	a5,a0
    80051394:	fcf43823          	sd	a5,-48(s0)
    80051398:	fb843783          	ld	a5,-72(s0)
    8005139c:	7b9c                	ld	a5,48(a5)
    8005139e:	fd043703          	ld	a4,-48(s0)
    800513a2:	f798                	sd	a4,40(a5)
    800513a4:	00004797          	auipc	a5,0x4
    800513a8:	c7478793          	addi	a5,a5,-908 # 80055018 <kernel_page_table>
    800513ac:	6398                	ld	a4,0(a5)
    800513ae:	fb843783          	ld	a5,-72(s0)
    800513b2:	7b9c                	ld	a5,48(a5)
    800513b4:	6384                	ld	s1,0(a5)
    800513b6:	fd043583          	ld	a1,-48(s0)
    800513ba:	853a                	mv	a0,a4
    800513bc:	db8ff0ef          	jal	ra,80050974 <virt_to_phys>
    800513c0:	87aa                	mv	a5,a0
    800513c2:	f49c                	sd	a5,40(s1)
    800513c4:	fda45783          	lhu	a5,-38(s0)
    800513c8:	2781                	sext.w	a5,a5
    800513ca:	0037979b          	slliw	a5,a5,0x3
    800513ce:	2781                	sext.w	a5,a5
    800513d0:	2799                	addiw	a5,a5,6
    800513d2:	2781                	sext.w	a5,a5
    800513d4:	853e                	mv	a0,a5
    800513d6:	d69fe0ef          	jal	ra,8005013e <imalloc>
    800513da:	87aa                	mv	a5,a0
    800513dc:	fcf43823          	sd	a5,-48(s0)
    800513e0:	fb843783          	ld	a5,-72(s0)
    800513e4:	7b9c                	ld	a5,48(a5)
    800513e6:	fd043703          	ld	a4,-48(s0)
    800513ea:	fb98                	sd	a4,48(a5)
    800513ec:	00004797          	auipc	a5,0x4
    800513f0:	c2c78793          	addi	a5,a5,-980 # 80055018 <kernel_page_table>
    800513f4:	6398                	ld	a4,0(a5)
    800513f6:	fb843783          	ld	a5,-72(s0)
    800513fa:	7b9c                	ld	a5,48(a5)
    800513fc:	6384                	ld	s1,0(a5)
    800513fe:	fd043583          	ld	a1,-48(s0)
    80051402:	853a                	mv	a0,a4
    80051404:	d70ff0ef          	jal	ra,80050974 <virt_to_phys>
    80051408:	87aa                	mv	a5,a0
    8005140a:	f89c                	sd	a5,48(s1)
    8005140c:	fb843783          	ld	a5,-72(s0)
    80051410:	7b9c                	ld	a5,48(a5)
    80051412:	639c                	ld	a5,0(a5)
    80051414:	4705                	li	a4,1
    80051416:	00e79e23          	sh	a4,28(a5)
    8005141a:	fb843783          	ld	a5,-72(s0)
    8005141e:	7b9c                	ld	a5,48(a5)
    80051420:	639c                	ld	a5,0(a5)
    80051422:	0147c783          	lbu	a5,20(a5)
    80051426:	0ff7f713          	andi	a4,a5,255
    8005142a:	fb843783          	ld	a5,-72(s0)
    8005142e:	7b9c                	ld	a5,48(a5)
    80051430:	639c                	ld	a5,0(a5)
    80051432:	00476713          	ori	a4,a4,4
    80051436:	0ff77713          	andi	a4,a4,255
    8005143a:	00e78a23          	sb	a4,20(a5)
    8005143e:	0001                	nop
    80051440:	60e6                	ld	ra,88(sp)
    80051442:	6446                	ld	s0,80(sp)
    80051444:	64a6                	ld	s1,72(sp)
    80051446:	6125                	addi	sp,sp,96
    80051448:	8082                	ret

000000008005144a <find_size>:
    8005144a:	7179                	addi	sp,sp,-48
    8005144c:	f422                	sd	s0,40(sp)
    8005144e:	1800                	addi	s0,sp,48
    80051450:	fca43c23          	sd	a0,-40(s0)
    80051454:	fd843783          	ld	a5,-40(s0)
    80051458:	2781                	sext.w	a5,a5
    8005145a:	1ff7f793          	andi	a5,a5,511
    8005145e:	fef42623          	sw	a5,-20(s0)
    80051462:	fec42783          	lw	a5,-20(s0)
    80051466:	2781                	sext.w	a5,a5
    80051468:	cb89                	beqz	a5,8005147a <find_size+0x30>
    8005146a:	fd843783          	ld	a5,-40(s0)
    8005146e:	83a5                	srli	a5,a5,0x9
    80051470:	2781                	sext.w	a5,a5
    80051472:	2785                	addiw	a5,a5,1
    80051474:	2781                	sext.w	a5,a5
    80051476:	2781                	sext.w	a5,a5
    80051478:	a029                	j	80051482 <find_size+0x38>
    8005147a:	fd843783          	ld	a5,-40(s0)
    8005147e:	83a5                	srli	a5,a5,0x9
    80051480:	2781                	sext.w	a5,a5
    80051482:	853e                	mv	a0,a5
    80051484:	7422                	ld	s0,40(sp)
    80051486:	6145                	addi	sp,sp,48
    80051488:	8082                	ret

000000008005148a <virt_block_drive>:
    8005148a:	7175                	addi	sp,sp,-144
    8005148c:	e506                	sd	ra,136(sp)
    8005148e:	e122                	sd	s0,128(sp)
    80051490:	fca6                	sd	s1,120(sp)
    80051492:	0900                	addi	s0,sp,144
    80051494:	f8a43423          	sd	a0,-120(s0)
    80051498:	87ae                	mv	a5,a1
    8005149a:	f6c43c23          	sd	a2,-136(s0)
    8005149e:	f8f42223          	sw	a5,-124(s0)
    800514a2:	6785                	lui	a5,0x1
    800514a4:	04278593          	addi	a1,a5,66 # 1042 <i+0x1022>
    800514a8:	6789                	lui	a5,0x2
    800514aa:	af478513          	addi	a0,a5,-1292 # 1af4 <i+0x1ad4>
    800514ae:	f97fe0ef          	jal	ra,80050444 <find_driver>
    800514b2:	fca43c23          	sd	a0,-40(s0)
    800514b6:	fd843783          	ld	a5,-40(s0)
    800514ba:	7b9c                	ld	a5,48(a5)
    800514bc:	639c                	ld	a5,0(a5)
    800514be:	0187d783          	lhu	a5,24(a5)
    800514c2:	17c2                	slli	a5,a5,0x30
    800514c4:	93c1                	srli	a5,a5,0x30
    800514c6:	fcf42a23          	sw	a5,-44(s0)
    800514ca:	4541                	li	a0,16
    800514cc:	c73fe0ef          	jal	ra,8005013e <imalloc>
    800514d0:	fca43423          	sd	a0,-56(s0)
    800514d4:	fd843783          	ld	a5,-40(s0)
    800514d8:	7b9c                	ld	a5,48(a5)
    800514da:	6f9c                	ld	a5,24(a5)
    800514dc:	4bdc                	lw	a5,20(a5)
    800514de:	1782                	slli	a5,a5,0x20
    800514e0:	9381                	srli	a5,a5,0x20
    800514e2:	fcf43023          	sd	a5,-64(s0)
    800514e6:	fc843783          	ld	a5,-56(s0)
    800514ea:	f8442703          	lw	a4,-124(s0)
    800514ee:	c398                	sw	a4,0(a5)
    800514f0:	f8843703          	ld	a4,-120(s0)
    800514f4:	fc043783          	ld	a5,-64(s0)
    800514f8:	02f75733          	divu	a4,a4,a5
    800514fc:	fc843783          	ld	a5,-56(s0)
    80051500:	e798                	sd	a4,8(a5)
    80051502:	f7843503          	ld	a0,-136(s0)
    80051506:	f45ff0ef          	jal	ra,8005144a <find_size>
    8005150a:	87aa                	mv	a5,a0
    8005150c:	faf40fa3          	sb	a5,-65(s0)
    80051510:	fbf44703          	lbu	a4,-65(s0)
    80051514:	fc043783          	ld	a5,-64(s0)
    80051518:	02f707b3          	mul	a5,a4,a5
    8005151c:	853e                	mv	a0,a5
    8005151e:	c21fe0ef          	jal	ra,8005013e <imalloc>
    80051522:	faa43823          	sd	a0,-80(s0)
    80051526:	4505                	li	a0,1
    80051528:	c17fe0ef          	jal	ra,8005013e <imalloc>
    8005152c:	faa43423          	sd	a0,-88(s0)
    80051530:	fd843783          	ld	a5,-40(s0)
    80051534:	6f94                	ld	a3,24(a5)
    80051536:	fd843783          	ld	a5,-40(s0)
    8005153a:	0287d783          	lhu	a5,40(a5)
    8005153e:	0007871b          	sext.w	a4,a5
    80051542:	16c2                	slli	a3,a3,0x30
    80051544:	92c1                	srli	a3,a3,0x30
    80051546:	00004617          	auipc	a2,0x4
    8005154a:	b2260613          	addi	a2,a2,-1246 # 80055068 <elems>
    8005154e:	87ba                	mv	a5,a4
    80051550:	078a                	slli	a5,a5,0x2
    80051552:	97ba                	add	a5,a5,a4
    80051554:	078e                	slli	a5,a5,0x3
    80051556:	97b2                	add	a5,a5,a2
    80051558:	00d79023          	sh	a3,0(a5)
    8005155c:	fd843783          	ld	a5,-40(s0)
    80051560:	0287d783          	lhu	a5,40(a5)
    80051564:	0007871b          	sext.w	a4,a5
    80051568:	fb043683          	ld	a3,-80(s0)
    8005156c:	00004617          	auipc	a2,0x4
    80051570:	afc60613          	addi	a2,a2,-1284 # 80055068 <elems>
    80051574:	87ba                	mv	a5,a4
    80051576:	078a                	slli	a5,a5,0x2
    80051578:	97ba                	add	a5,a5,a4
    8005157a:	078e                	slli	a5,a5,0x3
    8005157c:	97b2                	add	a5,a5,a2
    8005157e:	e794                	sd	a3,8(a5)
    80051580:	fd843783          	ld	a5,-40(s0)
    80051584:	0287d783          	lhu	a5,40(a5)
    80051588:	0007871b          	sext.w	a4,a5
    8005158c:	fa843683          	ld	a3,-88(s0)
    80051590:	00004617          	auipc	a2,0x4
    80051594:	ad860613          	addi	a2,a2,-1320 # 80055068 <elems>
    80051598:	87ba                	mv	a5,a4
    8005159a:	078a                	slli	a5,a5,0x2
    8005159c:	97ba                	add	a5,a5,a4
    8005159e:	078e                	slli	a5,a5,0x3
    800515a0:	97b2                	add	a5,a5,a2
    800515a2:	eb94                	sd	a3,16(a5)
    800515a4:	fbf44683          	lbu	a3,-65(s0)
    800515a8:	fd843783          	ld	a5,-40(s0)
    800515ac:	0287d783          	lhu	a5,40(a5)
    800515b0:	0007871b          	sext.w	a4,a5
    800515b4:	fc043783          	ld	a5,-64(s0)
    800515b8:	02f686b3          	mul	a3,a3,a5
    800515bc:	00004617          	auipc	a2,0x4
    800515c0:	aac60613          	addi	a2,a2,-1364 # 80055068 <elems>
    800515c4:	87ba                	mv	a5,a4
    800515c6:	078a                	slli	a5,a5,0x2
    800515c8:	97ba                	add	a5,a5,a4
    800515ca:	078e                	slli	a5,a5,0x3
    800515cc:	97b2                	add	a5,a5,a2
    800515ce:	ef94                	sd	a3,24(a5)
    800515d0:	fd843783          	ld	a5,-40(s0)
    800515d4:	0287d783          	lhu	a5,40(a5)
    800515d8:	0007871b          	sext.w	a4,a5
    800515dc:	00004697          	auipc	a3,0x4
    800515e0:	a8c68693          	addi	a3,a3,-1396 # 80055068 <elems>
    800515e4:	87ba                	mv	a5,a4
    800515e6:	078a                	slli	a5,a5,0x2
    800515e8:	97ba                	add	a5,a5,a4
    800515ea:	078e                	slli	a5,a5,0x3
    800515ec:	97b6                	add	a5,a5,a3
    800515ee:	fc043703          	ld	a4,-64(s0)
    800515f2:	f398                	sd	a4,32(a5)
    800515f4:	fd843783          	ld	a5,-40(s0)
    800515f8:	0287d783          	lhu	a5,40(a5)
    800515fc:	2785                	addiw	a5,a5,1
    800515fe:	03079713          	slli	a4,a5,0x30
    80051602:	9341                	srli	a4,a4,0x30
    80051604:	fd843783          	ld	a5,-40(s0)
    80051608:	02e79423          	sh	a4,40(a5)
    8005160c:	fd843783          	ld	a5,-40(s0)
    80051610:	6f9c                	ld	a5,24(a5)
    80051612:	faf41323          	sh	a5,-90(s0)
    80051616:	fa843783          	ld	a5,-88(s0)
    8005161a:	04500713          	li	a4,69
    8005161e:	00e78023          	sb	a4,0(a5)
    80051622:	00004797          	auipc	a5,0x4
    80051626:	9f678793          	addi	a5,a5,-1546 # 80055018 <kernel_page_table>
    8005162a:	6394                	ld	a3,0(a5)
    8005162c:	fc843603          	ld	a2,-56(s0)
    80051630:	fd843783          	ld	a5,-40(s0)
    80051634:	7b9c                	ld	a5,48(a5)
    80051636:	7398                	ld	a4,32(a5)
    80051638:	fd843783          	ld	a5,-40(s0)
    8005163c:	6f9c                	ld	a5,24(a5)
    8005163e:	0792                	slli	a5,a5,0x4
    80051640:	00f704b3          	add	s1,a4,a5
    80051644:	85b2                	mv	a1,a2
    80051646:	8536                	mv	a0,a3
    80051648:	b2cff0ef          	jal	ra,80050974 <virt_to_phys>
    8005164c:	87aa                	mv	a5,a0
    8005164e:	e09c                	sd	a5,0(s1)
    80051650:	fd843783          	ld	a5,-40(s0)
    80051654:	7b9c                	ld	a5,48(a5)
    80051656:	7398                	ld	a4,32(a5)
    80051658:	fd843783          	ld	a5,-40(s0)
    8005165c:	6f9c                	ld	a5,24(a5)
    8005165e:	0792                	slli	a5,a5,0x4
    80051660:	97ba                	add	a5,a5,a4
    80051662:	4741                	li	a4,16
    80051664:	c798                	sw	a4,8(a5)
    80051666:	fd843783          	ld	a5,-40(s0)
    8005166a:	7b9c                	ld	a5,48(a5)
    8005166c:	7398                	ld	a4,32(a5)
    8005166e:	fd843783          	ld	a5,-40(s0)
    80051672:	6f9c                	ld	a5,24(a5)
    80051674:	0792                	slli	a5,a5,0x4
    80051676:	97ba                	add	a5,a5,a4
    80051678:	4705                	li	a4,1
    8005167a:	00e79623          	sh	a4,12(a5)
    8005167e:	fd843783          	ld	a5,-40(s0)
    80051682:	6f9c                	ld	a5,24(a5)
    80051684:	03079713          	slli	a4,a5,0x30
    80051688:	9341                	srli	a4,a4,0x30
    8005168a:	fd843783          	ld	a5,-40(s0)
    8005168e:	7b9c                	ld	a5,48(a5)
    80051690:	7394                	ld	a3,32(a5)
    80051692:	fd843783          	ld	a5,-40(s0)
    80051696:	6f9c                	ld	a5,24(a5)
    80051698:	0792                	slli	a5,a5,0x4
    8005169a:	97b6                	add	a5,a5,a3
    8005169c:	2705                	addiw	a4,a4,1
    8005169e:	1742                	slli	a4,a4,0x30
    800516a0:	9341                	srli	a4,a4,0x30
    800516a2:	00e79723          	sh	a4,14(a5)
    800516a6:	fd843783          	ld	a5,-40(s0)
    800516aa:	6f9c                	ld	a5,24(a5)
    800516ac:	00178713          	addi	a4,a5,1
    800516b0:	fd843783          	ld	a5,-40(s0)
    800516b4:	ef98                	sd	a4,24(a5)
    800516b6:	f8442783          	lw	a5,-124(s0)
    800516ba:	2781                	sext.w	a5,a5
    800516bc:	efd1                	bnez	a5,80051758 <virt_block_drive+0x2ce>
    800516be:	00004797          	auipc	a5,0x4
    800516c2:	95a78793          	addi	a5,a5,-1702 # 80055018 <kernel_page_table>
    800516c6:	6394                	ld	a3,0(a5)
    800516c8:	fb043603          	ld	a2,-80(s0)
    800516cc:	fd843783          	ld	a5,-40(s0)
    800516d0:	7b9c                	ld	a5,48(a5)
    800516d2:	7398                	ld	a4,32(a5)
    800516d4:	fd843783          	ld	a5,-40(s0)
    800516d8:	6f9c                	ld	a5,24(a5)
    800516da:	0792                	slli	a5,a5,0x4
    800516dc:	00f704b3          	add	s1,a4,a5
    800516e0:	85b2                	mv	a1,a2
    800516e2:	8536                	mv	a0,a3
    800516e4:	a90ff0ef          	jal	ra,80050974 <virt_to_phys>
    800516e8:	87aa                	mv	a5,a0
    800516ea:	e09c                	sd	a5,0(s1)
    800516ec:	fbf44783          	lbu	a5,-65(s0)
    800516f0:	0007869b          	sext.w	a3,a5
    800516f4:	fc043783          	ld	a5,-64(s0)
    800516f8:	0007871b          	sext.w	a4,a5
    800516fc:	fd843783          	ld	a5,-40(s0)
    80051700:	7b9c                	ld	a5,48(a5)
    80051702:	7390                	ld	a2,32(a5)
    80051704:	fd843783          	ld	a5,-40(s0)
    80051708:	6f9c                	ld	a5,24(a5)
    8005170a:	0792                	slli	a5,a5,0x4
    8005170c:	97b2                	add	a5,a5,a2
    8005170e:	02e6873b          	mulw	a4,a3,a4
    80051712:	2701                	sext.w	a4,a4
    80051714:	c798                	sw	a4,8(a5)
    80051716:	fd843783          	ld	a5,-40(s0)
    8005171a:	7b9c                	ld	a5,48(a5)
    8005171c:	7398                	ld	a4,32(a5)
    8005171e:	fd843783          	ld	a5,-40(s0)
    80051722:	6f9c                	ld	a5,24(a5)
    80051724:	0792                	slli	a5,a5,0x4
    80051726:	97ba                	add	a5,a5,a4
    80051728:	470d                	li	a4,3
    8005172a:	00e79623          	sh	a4,12(a5)
    8005172e:	fd843783          	ld	a5,-40(s0)
    80051732:	6f9c                	ld	a5,24(a5)
    80051734:	03079713          	slli	a4,a5,0x30
    80051738:	9341                	srli	a4,a4,0x30
    8005173a:	fd843783          	ld	a5,-40(s0)
    8005173e:	7b9c                	ld	a5,48(a5)
    80051740:	7394                	ld	a3,32(a5)
    80051742:	fd843783          	ld	a5,-40(s0)
    80051746:	6f9c                	ld	a5,24(a5)
    80051748:	0792                	slli	a5,a5,0x4
    8005174a:	97b6                	add	a5,a5,a3
    8005174c:	2705                	addiw	a4,a4,1
    8005174e:	1742                	slli	a4,a4,0x30
    80051750:	9341                	srli	a4,a4,0x30
    80051752:	00e79723          	sh	a4,14(a5)
    80051756:	a065                	j	800517fe <virt_block_drive+0x374>
    80051758:	f8442783          	lw	a5,-124(s0)
    8005175c:	0007871b          	sext.w	a4,a5
    80051760:	4785                	li	a5,1
    80051762:	08f71e63          	bne	a4,a5,800517fe <virt_block_drive+0x374>
    80051766:	00004797          	auipc	a5,0x4
    8005176a:	8b278793          	addi	a5,a5,-1870 # 80055018 <kernel_page_table>
    8005176e:	6394                	ld	a3,0(a5)
    80051770:	fb043603          	ld	a2,-80(s0)
    80051774:	fd843783          	ld	a5,-40(s0)
    80051778:	7b9c                	ld	a5,48(a5)
    8005177a:	7398                	ld	a4,32(a5)
    8005177c:	fd843783          	ld	a5,-40(s0)
    80051780:	6f9c                	ld	a5,24(a5)
    80051782:	0792                	slli	a5,a5,0x4
    80051784:	00f704b3          	add	s1,a4,a5
    80051788:	85b2                	mv	a1,a2
    8005178a:	8536                	mv	a0,a3
    8005178c:	9e8ff0ef          	jal	ra,80050974 <virt_to_phys>
    80051790:	87aa                	mv	a5,a0
    80051792:	e09c                	sd	a5,0(s1)
    80051794:	fbf44783          	lbu	a5,-65(s0)
    80051798:	0007869b          	sext.w	a3,a5
    8005179c:	fc043783          	ld	a5,-64(s0)
    800517a0:	0007871b          	sext.w	a4,a5
    800517a4:	fd843783          	ld	a5,-40(s0)
    800517a8:	7b9c                	ld	a5,48(a5)
    800517aa:	7390                	ld	a2,32(a5)
    800517ac:	fd843783          	ld	a5,-40(s0)
    800517b0:	6f9c                	ld	a5,24(a5)
    800517b2:	0792                	slli	a5,a5,0x4
    800517b4:	97b2                	add	a5,a5,a2
    800517b6:	02e6873b          	mulw	a4,a3,a4
    800517ba:	2701                	sext.w	a4,a4
    800517bc:	c798                	sw	a4,8(a5)
    800517be:	fd843783          	ld	a5,-40(s0)
    800517c2:	7b9c                	ld	a5,48(a5)
    800517c4:	7398                	ld	a4,32(a5)
    800517c6:	fd843783          	ld	a5,-40(s0)
    800517ca:	6f9c                	ld	a5,24(a5)
    800517cc:	0792                	slli	a5,a5,0x4
    800517ce:	97ba                	add	a5,a5,a4
    800517d0:	4705                	li	a4,1
    800517d2:	00e79623          	sh	a4,12(a5)
    800517d6:	fd843783          	ld	a5,-40(s0)
    800517da:	6f9c                	ld	a5,24(a5)
    800517dc:	03079713          	slli	a4,a5,0x30
    800517e0:	9341                	srli	a4,a4,0x30
    800517e2:	fd843783          	ld	a5,-40(s0)
    800517e6:	7b9c                	ld	a5,48(a5)
    800517e8:	7394                	ld	a3,32(a5)
    800517ea:	fd843783          	ld	a5,-40(s0)
    800517ee:	6f9c                	ld	a5,24(a5)
    800517f0:	0792                	slli	a5,a5,0x4
    800517f2:	97b6                	add	a5,a5,a3
    800517f4:	2705                	addiw	a4,a4,1
    800517f6:	1742                	slli	a4,a4,0x30
    800517f8:	9341                	srli	a4,a4,0x30
    800517fa:	00e79723          	sh	a4,14(a5)
    800517fe:	fd843783          	ld	a5,-40(s0)
    80051802:	6f9c                	ld	a5,24(a5)
    80051804:	00178713          	addi	a4,a5,1
    80051808:	fd843783          	ld	a5,-40(s0)
    8005180c:	ef98                	sd	a4,24(a5)
    8005180e:	00004797          	auipc	a5,0x4
    80051812:	80a78793          	addi	a5,a5,-2038 # 80055018 <kernel_page_table>
    80051816:	6394                	ld	a3,0(a5)
    80051818:	fa843603          	ld	a2,-88(s0)
    8005181c:	fd843783          	ld	a5,-40(s0)
    80051820:	7b9c                	ld	a5,48(a5)
    80051822:	7398                	ld	a4,32(a5)
    80051824:	fd843783          	ld	a5,-40(s0)
    80051828:	6f9c                	ld	a5,24(a5)
    8005182a:	0792                	slli	a5,a5,0x4
    8005182c:	00f704b3          	add	s1,a4,a5
    80051830:	85b2                	mv	a1,a2
    80051832:	8536                	mv	a0,a3
    80051834:	940ff0ef          	jal	ra,80050974 <virt_to_phys>
    80051838:	87aa                	mv	a5,a0
    8005183a:	e09c                	sd	a5,0(s1)
    8005183c:	fd843783          	ld	a5,-40(s0)
    80051840:	7b9c                	ld	a5,48(a5)
    80051842:	7398                	ld	a4,32(a5)
    80051844:	fd843783          	ld	a5,-40(s0)
    80051848:	6f9c                	ld	a5,24(a5)
    8005184a:	0792                	slli	a5,a5,0x4
    8005184c:	97ba                	add	a5,a5,a4
    8005184e:	4705                	li	a4,1
    80051850:	c798                	sw	a4,8(a5)
    80051852:	fd843783          	ld	a5,-40(s0)
    80051856:	7b9c                	ld	a5,48(a5)
    80051858:	7398                	ld	a4,32(a5)
    8005185a:	fd843783          	ld	a5,-40(s0)
    8005185e:	6f9c                	ld	a5,24(a5)
    80051860:	0792                	slli	a5,a5,0x4
    80051862:	97ba                	add	a5,a5,a4
    80051864:	4709                	li	a4,2
    80051866:	00e79623          	sh	a4,12(a5)
    8005186a:	fd843783          	ld	a5,-40(s0)
    8005186e:	6f9c                	ld	a5,24(a5)
    80051870:	00178713          	addi	a4,a5,1
    80051874:	fd843783          	ld	a5,-40(s0)
    80051878:	ef98                	sd	a4,24(a5)
    8005187a:	fd843783          	ld	a5,-40(s0)
    8005187e:	7b9c                	ld	a5,48(a5)
    80051880:	7798                	ld	a4,40(a5)
    80051882:	fd843783          	ld	a5,-40(s0)
    80051886:	7b9c                	ld	a5,48(a5)
    80051888:	779c                	ld	a5,40(a5)
    8005188a:	0027d783          	lhu	a5,2(a5)
    8005188e:	2781                	sext.w	a5,a5
    80051890:	86be                	mv	a3,a5
    80051892:	fd442783          	lw	a5,-44(s0)
    80051896:	02f6f7bb          	remuw	a5,a3,a5
    8005189a:	2781                	sext.w	a5,a5
    8005189c:	1782                	slli	a5,a5,0x20
    8005189e:	9381                	srli	a5,a5,0x20
    800518a0:	0786                	slli	a5,a5,0x1
    800518a2:	97ba                	add	a5,a5,a4
    800518a4:	fa645703          	lhu	a4,-90(s0)
    800518a8:	00e79223          	sh	a4,4(a5)
    800518ac:	fd843783          	ld	a5,-40(s0)
    800518b0:	7b9c                	ld	a5,48(a5)
    800518b2:	779c                	ld	a5,40(a5)
    800518b4:	0027d703          	lhu	a4,2(a5)
    800518b8:	fd843783          	ld	a5,-40(s0)
    800518bc:	7b9c                	ld	a5,48(a5)
    800518be:	779c                	ld	a5,40(a5)
    800518c0:	2705                	addiw	a4,a4,1
    800518c2:	1742                	slli	a4,a4,0x30
    800518c4:	9341                	srli	a4,a4,0x30
    800518c6:	00e79123          	sh	a4,2(a5)
    800518ca:	fd843783          	ld	a5,-40(s0)
    800518ce:	0047d783          	lhu	a5,4(a5)
    800518d2:	2781                	sext.w	a5,a5
    800518d4:	2785                	addiw	a5,a5,1
    800518d6:	2781                	sext.w	a5,a5
    800518d8:	2781                	sext.w	a5,a5
    800518da:	873e                	mv	a4,a5
    800518dc:	fd442783          	lw	a5,-44(s0)
    800518e0:	02f777bb          	remuw	a5,a4,a5
    800518e4:	2781                	sext.w	a5,a5
    800518e6:	03079713          	slli	a4,a5,0x30
    800518ea:	9341                	srli	a4,a4,0x30
    800518ec:	fd843783          	ld	a5,-40(s0)
    800518f0:	00e79223          	sh	a4,4(a5)
    800518f4:	fd843783          	ld	a5,-40(s0)
    800518f8:	7b9c                	ld	a5,48(a5)
    800518fa:	679c                	ld	a5,8(a5)
    800518fc:	0047c783          	lbu	a5,4(a5)
    80051900:	0ff7f793          	andi	a5,a5,255
    80051904:	863e                	mv	a2,a5
    80051906:	6785                	lui	a5,0x1
    80051908:	04278593          	addi	a1,a5,66 # 1042 <i+0x1022>
    8005190c:	6789                	lui	a5,0x2
    8005190e:	af478513          	addi	a0,a5,-1292 # 1af4 <i+0x1ad4>
    80051912:	3a5000ef          	jal	ra,800524b6 <find_bar>
    80051916:	f8a43c23          	sd	a0,-104(s0)
    8005191a:	f9843783          	ld	a5,-104(s0)
    8005191e:	9bc1                	andi	a5,a5,-16
    80051920:	f8f43c23          	sd	a5,-104(s0)
    80051924:	fd843783          	ld	a5,-40(s0)
    80051928:	7b9c                	ld	a5,48(a5)
    8005192a:	679c                	ld	a5,8(a5)
    8005192c:	479c                	lw	a5,8(a5)
    8005192e:	2781                	sext.w	a5,a5
    80051930:	1782                	slli	a5,a5,0x20
    80051932:	9381                	srli	a5,a5,0x20
    80051934:	f9843703          	ld	a4,-104(s0)
    80051938:	97ba                	add	a5,a5,a4
    8005193a:	f8f43c23          	sd	a5,-104(s0)
    8005193e:	fd843783          	ld	a5,-40(s0)
    80051942:	7b9c                	ld	a5,48(a5)
    80051944:	639c                	ld	a5,0(a5)
    80051946:	01e7d783          	lhu	a5,30(a5)
    8005194a:	17c2                	slli	a5,a5,0x30
    8005194c:	93c1                	srli	a5,a5,0x30
    8005194e:	0007871b          	sext.w	a4,a5
    80051952:	fd843783          	ld	a5,-40(s0)
    80051956:	7b9c                	ld	a5,48(a5)
    80051958:	679c                	ld	a5,8(a5)
    8005195a:	4b9c                	lw	a5,16(a5)
    8005195c:	2781                	sext.w	a5,a5
    8005195e:	02f707bb          	mulw	a5,a4,a5
    80051962:	2781                	sext.w	a5,a5
    80051964:	02079713          	slli	a4,a5,0x20
    80051968:	9301                	srli	a4,a4,0x20
    8005196a:	f9843783          	ld	a5,-104(s0)
    8005196e:	97ba                	add	a5,a5,a4
    80051970:	0007a023          	sw	zero,0(a5)
    80051974:	4785                	li	a5,1
    80051976:	853e                	mv	a0,a5
    80051978:	60aa                	ld	ra,136(sp)
    8005197a:	640a                	ld	s0,128(sp)
    8005197c:	74e6                	ld	s1,120(sp)
    8005197e:	6149                	addi	sp,sp,144
    80051980:	8082                	ret

0000000080051982 <virt_block_drive_read>:
    80051982:	711d                	addi	sp,sp,-96
    80051984:	ec86                	sd	ra,88(sp)
    80051986:	e8a2                	sd	s0,80(sp)
    80051988:	1080                	addi	s0,sp,96
    8005198a:	faa43c23          	sd	a0,-72(s0)
    8005198e:	fab43823          	sd	a1,-80(s0)
    80051992:	fac43423          	sd	a2,-88(s0)
    80051996:	6785                	lui	a5,0x1
    80051998:	04278593          	addi	a1,a5,66 # 1042 <i+0x1022>
    8005199c:	6789                	lui	a5,0x2
    8005199e:	af478513          	addi	a0,a5,-1292 # 1af4 <i+0x1ad4>
    800519a2:	aa3fe0ef          	jal	ra,80050444 <find_driver>
    800519a6:	fca43423          	sd	a0,-56(s0)
    800519aa:	fa843603          	ld	a2,-88(s0)
    800519ae:	4581                	li	a1,0
    800519b0:	fb043503          	ld	a0,-80(s0)
    800519b4:	ad7ff0ef          	jal	ra,8005148a <virt_block_drive>
    800519b8:	87aa                	mv	a5,a0
    800519ba:	fcf42223          	sw	a5,-60(s0)
    800519be:	fc442783          	lw	a5,-60(s0)
    800519c2:	0007871b          	sext.w	a4,a5
    800519c6:	4785                	li	a5,1
    800519c8:	10f71763          	bne	a4,a5,80051ad6 <virt_block_drive_read+0x154>
    800519cc:	0001                	nop
    800519ce:	fc843783          	ld	a5,-56(s0)
    800519d2:	739c                	ld	a5,32(a5)
    800519d4:	fc843703          	ld	a4,-56(s0)
    800519d8:	7b18                	ld	a4,48(a4)
    800519da:	7b18                	ld	a4,48(a4)
    800519dc:	00275703          	lhu	a4,2(a4)
    800519e0:	fee787e3          	beq	a5,a4,800519ce <virt_block_drive_read+0x4c>
    800519e4:	fc843783          	ld	a5,-56(s0)
    800519e8:	7b9c                	ld	a5,48(a5)
    800519ea:	7b98                	ld	a4,48(a5)
    800519ec:	fc843783          	ld	a5,-56(s0)
    800519f0:	739c                	ld	a5,32(a5)
    800519f2:	078e                	slli	a5,a5,0x3
    800519f4:	97ba                	add	a5,a5,a4
    800519f6:	43dc                	lw	a5,4(a5)
    800519f8:	fcf42023          	sw	a5,-64(s0)
    800519fc:	fe042223          	sw	zero,-28(s0)
    80051a00:	a889                	j	80051a52 <virt_block_drive_read+0xd0>
    80051a02:	00003697          	auipc	a3,0x3
    80051a06:	66668693          	addi	a3,a3,1638 # 80055068 <elems>
    80051a0a:	fe442703          	lw	a4,-28(s0)
    80051a0e:	87ba                	mv	a5,a4
    80051a10:	078a                	slli	a5,a5,0x2
    80051a12:	97ba                	add	a5,a5,a4
    80051a14:	078e                	slli	a5,a5,0x3
    80051a16:	97b6                	add	a5,a5,a3
    80051a18:	0007d783          	lhu	a5,0(a5)
    80051a1c:	0007871b          	sext.w	a4,a5
    80051a20:	fc042783          	lw	a5,-64(s0)
    80051a24:	2781                	sext.w	a5,a5
    80051a26:	02e79163          	bne	a5,a4,80051a48 <virt_block_drive_read+0xc6>
    80051a2a:	00003697          	auipc	a3,0x3
    80051a2e:	63e68693          	addi	a3,a3,1598 # 80055068 <elems>
    80051a32:	fe442703          	lw	a4,-28(s0)
    80051a36:	87ba                	mv	a5,a4
    80051a38:	078a                	slli	a5,a5,0x2
    80051a3a:	97ba                	add	a5,a5,a4
    80051a3c:	078e                	slli	a5,a5,0x3
    80051a3e:	97b6                	add	a5,a5,a3
    80051a40:	679c                	ld	a5,8(a5)
    80051a42:	fef43423          	sd	a5,-24(s0)
    80051a46:	a00d                	j	80051a68 <virt_block_drive_read+0xe6>
    80051a48:	fe442783          	lw	a5,-28(s0)
    80051a4c:	2785                	addiw	a5,a5,1
    80051a4e:	fef42223          	sw	a5,-28(s0)
    80051a52:	fc843783          	ld	a5,-56(s0)
    80051a56:	0287d783          	lhu	a5,40(a5)
    80051a5a:	0007871b          	sext.w	a4,a5
    80051a5e:	fe442783          	lw	a5,-28(s0)
    80051a62:	2781                	sext.w	a5,a5
    80051a64:	f8e7cfe3          	blt	a5,a4,80051a02 <virt_block_drive_read+0x80>
    80051a68:	fa843703          	ld	a4,-88(s0)
    80051a6c:	20000793          	li	a5,512
    80051a70:	00e7e763          	bltu	a5,a4,80051a7e <virt_block_drive_read+0xfc>
    80051a74:	fb043783          	ld	a5,-80(s0)
    80051a78:	fcf43c23          	sd	a5,-40(s0)
    80051a7c:	a829                	j	80051a96 <virt_block_drive_read+0x114>
    80051a7e:	0000f517          	auipc	a0,0xf
    80051a82:	65250513          	addi	a0,a0,1618 # 800610d0 <_rodata_start+0xd0>
    80051a86:	13d000ef          	jal	ra,800523c2 <kprint>
    80051a8a:	fb043783          	ld	a5,-80(s0)
    80051a8e:	1ff7f793          	andi	a5,a5,511
    80051a92:	fcf43c23          	sd	a5,-40(s0)
    80051a96:	fc043823          	sd	zero,-48(s0)
    80051a9a:	a03d                	j	80051ac8 <virt_block_drive_read+0x146>
    80051a9c:	fd843703          	ld	a4,-40(s0)
    80051aa0:	fd043783          	ld	a5,-48(s0)
    80051aa4:	97ba                	add	a5,a5,a4
    80051aa6:	fe843703          	ld	a4,-24(s0)
    80051aaa:	973e                	add	a4,a4,a5
    80051aac:	fb843683          	ld	a3,-72(s0)
    80051ab0:	fd043783          	ld	a5,-48(s0)
    80051ab4:	97b6                	add	a5,a5,a3
    80051ab6:	00074703          	lbu	a4,0(a4)
    80051aba:	00e78023          	sb	a4,0(a5)
    80051abe:	fd043783          	ld	a5,-48(s0)
    80051ac2:	0785                	addi	a5,a5,1
    80051ac4:	fcf43823          	sd	a5,-48(s0)
    80051ac8:	fd043703          	ld	a4,-48(s0)
    80051acc:	fa843783          	ld	a5,-88(s0)
    80051ad0:	fcf766e3          	bltu	a4,a5,80051a9c <virt_block_drive_read+0x11a>
    80051ad4:	a011                	j	80051ad8 <virt_block_drive_read+0x156>
    80051ad6:	0001                	nop
    80051ad8:	60e6                	ld	ra,88(sp)
    80051ada:	6446                	ld	s0,80(sp)
    80051adc:	6125                	addi	sp,sp,96
    80051ade:	8082                	ret

0000000080051ae0 <_kputs>:
    80051ae0:	1101                	addi	sp,sp,-32
    80051ae2:	ec06                	sd	ra,24(sp)
    80051ae4:	e822                	sd	s0,16(sp)
    80051ae6:	1000                	addi	s0,sp,32
    80051ae8:	fea43423          	sd	a0,-24(s0)
    80051aec:	00003797          	auipc	a5,0x3
    80051af0:	56c78793          	addi	a5,a5,1388 # 80055058 <_kprint_putc>
    80051af4:	639c                	ld	a5,0(a5)
    80051af6:	cb85                	beqz	a5,80051b26 <_kputs+0x46>
    80051af8:	a00d                	j	80051b1a <_kputs+0x3a>
    80051afa:	00003797          	auipc	a5,0x3
    80051afe:	55e78793          	addi	a5,a5,1374 # 80055058 <_kprint_putc>
    80051b02:	6398                	ld	a4,0(a5)
    80051b04:	fe843783          	ld	a5,-24(s0)
    80051b08:	0007c783          	lbu	a5,0(a5)
    80051b0c:	853e                	mv	a0,a5
    80051b0e:	9702                	jalr	a4
    80051b10:	fe843783          	ld	a5,-24(s0)
    80051b14:	0785                	addi	a5,a5,1
    80051b16:	fef43423          	sd	a5,-24(s0)
    80051b1a:	fe843783          	ld	a5,-24(s0)
    80051b1e:	0007c783          	lbu	a5,0(a5)
    80051b22:	ffe1                	bnez	a5,80051afa <_kputs+0x1a>
    80051b24:	a011                	j	80051b28 <_kputs+0x48>
    80051b26:	0001                	nop
    80051b28:	60e2                	ld	ra,24(sp)
    80051b2a:	6442                	ld	s0,16(sp)
    80051b2c:	6105                	addi	sp,sp,32
    80051b2e:	8082                	ret

0000000080051b30 <atos>:
    80051b30:	1101                	addi	sp,sp,-32
    80051b32:	ec22                	sd	s0,24(sp)
    80051b34:	1000                	addi	s0,sp,32
    80051b36:	fea43423          	sd	a0,-24(s0)
    80051b3a:	87ae                	mv	a5,a1
    80051b3c:	fef403a3          	sb	a5,-25(s0)
    80051b40:	fe843783          	ld	a5,-24(s0)
    80051b44:	fe744703          	lbu	a4,-25(s0)
    80051b48:	00e78023          	sb	a4,0(a5)
    80051b4c:	fe843783          	ld	a5,-24(s0)
    80051b50:	0785                	addi	a5,a5,1
    80051b52:	00078023          	sb	zero,0(a5)
    80051b56:	fe843783          	ld	a5,-24(s0)
    80051b5a:	853e                	mv	a0,a5
    80051b5c:	6462                	ld	s0,24(sp)
    80051b5e:	6105                	addi	sp,sp,32
    80051b60:	8082                	ret

0000000080051b62 <dtos>:
    80051b62:	7179                	addi	sp,sp,-48
    80051b64:	f422                	sd	s0,40(sp)
    80051b66:	1800                	addi	s0,sp,48
    80051b68:	fca43c23          	sd	a0,-40(s0)
    80051b6c:	87ae                	mv	a5,a1
    80051b6e:	fcf42a23          	sw	a5,-44(s0)
    80051b72:	fd442783          	lw	a5,-44(s0)
    80051b76:	01f7d79b          	srliw	a5,a5,0x1f
    80051b7a:	0ff7f793          	andi	a5,a5,255
    80051b7e:	fef42623          	sw	a5,-20(s0)
    80051b82:	fec42783          	lw	a5,-20(s0)
    80051b86:	2781                	sext.w	a5,a5
    80051b88:	c799                	beqz	a5,80051b96 <dtos+0x34>
    80051b8a:	fd442783          	lw	a5,-44(s0)
    80051b8e:	40f007bb          	negw	a5,a5
    80051b92:	fcf42a23          	sw	a5,-44(s0)
    80051b96:	fd843783          	ld	a5,-40(s0)
    80051b9a:	07b1                	addi	a5,a5,12
    80051b9c:	fcf43c23          	sd	a5,-40(s0)
    80051ba0:	fd843783          	ld	a5,-40(s0)
    80051ba4:	17fd                	addi	a5,a5,-1
    80051ba6:	fcf43c23          	sd	a5,-40(s0)
    80051baa:	fd843783          	ld	a5,-40(s0)
    80051bae:	00078023          	sb	zero,0(a5)
    80051bb2:	fd442703          	lw	a4,-44(s0)
    80051bb6:	47a9                	li	a5,10
    80051bb8:	02f767bb          	remw	a5,a4,a5
    80051bbc:	2781                	sext.w	a5,a5
    80051bbe:	0ff7f793          	andi	a5,a5,255
    80051bc2:	fd843703          	ld	a4,-40(s0)
    80051bc6:	177d                	addi	a4,a4,-1
    80051bc8:	fce43c23          	sd	a4,-40(s0)
    80051bcc:	0307879b          	addiw	a5,a5,48
    80051bd0:	0ff7f713          	andi	a4,a5,255
    80051bd4:	fd843783          	ld	a5,-40(s0)
    80051bd8:	00e78023          	sb	a4,0(a5)
    80051bdc:	fd442703          	lw	a4,-44(s0)
    80051be0:	47a9                	li	a5,10
    80051be2:	02f747bb          	divw	a5,a4,a5
    80051be6:	fcf42a23          	sw	a5,-44(s0)
    80051bea:	fd442783          	lw	a5,-44(s0)
    80051bee:	2781                	sext.w	a5,a5
    80051bf0:	f3e9                	bnez	a5,80051bb2 <dtos+0x50>
    80051bf2:	fec42783          	lw	a5,-20(s0)
    80051bf6:	2781                	sext.w	a5,a5
    80051bf8:	cf81                	beqz	a5,80051c10 <dtos+0xae>
    80051bfa:	fd843783          	ld	a5,-40(s0)
    80051bfe:	17fd                	addi	a5,a5,-1
    80051c00:	fcf43c23          	sd	a5,-40(s0)
    80051c04:	fd843783          	ld	a5,-40(s0)
    80051c08:	02d00713          	li	a4,45
    80051c0c:	00e78023          	sb	a4,0(a5)
    80051c10:	fd843783          	ld	a5,-40(s0)
    80051c14:	853e                	mv	a0,a5
    80051c16:	7422                	ld	s0,40(sp)
    80051c18:	6145                	addi	sp,sp,48
    80051c1a:	8082                	ret

0000000080051c1c <Dtos>:
    80051c1c:	7179                	addi	sp,sp,-48
    80051c1e:	f422                	sd	s0,40(sp)
    80051c20:	1800                	addi	s0,sp,48
    80051c22:	fca43c23          	sd	a0,-40(s0)
    80051c26:	fcb43823          	sd	a1,-48(s0)
    80051c2a:	fd043783          	ld	a5,-48(s0)
    80051c2e:	93fd                	srli	a5,a5,0x3f
    80051c30:	0ff7f793          	andi	a5,a5,255
    80051c34:	fef42623          	sw	a5,-20(s0)
    80051c38:	fec42783          	lw	a5,-20(s0)
    80051c3c:	2781                	sext.w	a5,a5
    80051c3e:	c799                	beqz	a5,80051c4c <Dtos+0x30>
    80051c40:	fd043783          	ld	a5,-48(s0)
    80051c44:	40f007b3          	neg	a5,a5
    80051c48:	fcf43823          	sd	a5,-48(s0)
    80051c4c:	fd843783          	ld	a5,-40(s0)
    80051c50:	07e1                	addi	a5,a5,24
    80051c52:	fcf43c23          	sd	a5,-40(s0)
    80051c56:	fd843783          	ld	a5,-40(s0)
    80051c5a:	17fd                	addi	a5,a5,-1
    80051c5c:	fcf43c23          	sd	a5,-40(s0)
    80051c60:	fd843783          	ld	a5,-40(s0)
    80051c64:	00078023          	sb	zero,0(a5)
    80051c68:	fd043703          	ld	a4,-48(s0)
    80051c6c:	47a9                	li	a5,10
    80051c6e:	02f767b3          	rem	a5,a4,a5
    80051c72:	0ff7f793          	andi	a5,a5,255
    80051c76:	fd843703          	ld	a4,-40(s0)
    80051c7a:	177d                	addi	a4,a4,-1
    80051c7c:	fce43c23          	sd	a4,-40(s0)
    80051c80:	0307879b          	addiw	a5,a5,48
    80051c84:	0ff7f713          	andi	a4,a5,255
    80051c88:	fd843783          	ld	a5,-40(s0)
    80051c8c:	00e78023          	sb	a4,0(a5)
    80051c90:	fd043703          	ld	a4,-48(s0)
    80051c94:	47a9                	li	a5,10
    80051c96:	02f747b3          	div	a5,a4,a5
    80051c9a:	fcf43823          	sd	a5,-48(s0)
    80051c9e:	fd043783          	ld	a5,-48(s0)
    80051ca2:	f3f9                	bnez	a5,80051c68 <Dtos+0x4c>
    80051ca4:	fec42783          	lw	a5,-20(s0)
    80051ca8:	2781                	sext.w	a5,a5
    80051caa:	cf81                	beqz	a5,80051cc2 <Dtos+0xa6>
    80051cac:	fd843783          	ld	a5,-40(s0)
    80051cb0:	17fd                	addi	a5,a5,-1
    80051cb2:	fcf43c23          	sd	a5,-40(s0)
    80051cb6:	fd843783          	ld	a5,-40(s0)
    80051cba:	02d00713          	li	a4,45
    80051cbe:	00e78023          	sb	a4,0(a5)
    80051cc2:	fd843783          	ld	a5,-40(s0)
    80051cc6:	853e                	mv	a0,a5
    80051cc8:	7422                	ld	s0,40(sp)
    80051cca:	6145                	addi	sp,sp,48
    80051ccc:	8082                	ret

0000000080051cce <utos>:
    80051cce:	1101                	addi	sp,sp,-32
    80051cd0:	ec22                	sd	s0,24(sp)
    80051cd2:	1000                	addi	s0,sp,32
    80051cd4:	fea43423          	sd	a0,-24(s0)
    80051cd8:	87ae                	mv	a5,a1
    80051cda:	fef42223          	sw	a5,-28(s0)
    80051cde:	fe843783          	ld	a5,-24(s0)
    80051ce2:	07b1                	addi	a5,a5,12
    80051ce4:	fef43423          	sd	a5,-24(s0)
    80051ce8:	fe843783          	ld	a5,-24(s0)
    80051cec:	17fd                	addi	a5,a5,-1
    80051cee:	fef43423          	sd	a5,-24(s0)
    80051cf2:	fe843783          	ld	a5,-24(s0)
    80051cf6:	00078023          	sb	zero,0(a5)
    80051cfa:	fe442703          	lw	a4,-28(s0)
    80051cfe:	47a9                	li	a5,10
    80051d00:	02f777bb          	remuw	a5,a4,a5
    80051d04:	2781                	sext.w	a5,a5
    80051d06:	0ff7f793          	andi	a5,a5,255
    80051d0a:	fe843703          	ld	a4,-24(s0)
    80051d0e:	177d                	addi	a4,a4,-1
    80051d10:	fee43423          	sd	a4,-24(s0)
    80051d14:	0307879b          	addiw	a5,a5,48
    80051d18:	0ff7f713          	andi	a4,a5,255
    80051d1c:	fe843783          	ld	a5,-24(s0)
    80051d20:	00e78023          	sb	a4,0(a5)
    80051d24:	fe442703          	lw	a4,-28(s0)
    80051d28:	47a9                	li	a5,10
    80051d2a:	02f757bb          	divuw	a5,a4,a5
    80051d2e:	fef42223          	sw	a5,-28(s0)
    80051d32:	fe442783          	lw	a5,-28(s0)
    80051d36:	2781                	sext.w	a5,a5
    80051d38:	f3e9                	bnez	a5,80051cfa <utos+0x2c>
    80051d3a:	fe843783          	ld	a5,-24(s0)
    80051d3e:	853e                	mv	a0,a5
    80051d40:	6462                	ld	s0,24(sp)
    80051d42:	6105                	addi	sp,sp,32
    80051d44:	8082                	ret

0000000080051d46 <Utos>:
    80051d46:	1101                	addi	sp,sp,-32
    80051d48:	ec22                	sd	s0,24(sp)
    80051d4a:	1000                	addi	s0,sp,32
    80051d4c:	fea43423          	sd	a0,-24(s0)
    80051d50:	feb43023          	sd	a1,-32(s0)
    80051d54:	fe843783          	ld	a5,-24(s0)
    80051d58:	07e1                	addi	a5,a5,24
    80051d5a:	fef43423          	sd	a5,-24(s0)
    80051d5e:	fe843783          	ld	a5,-24(s0)
    80051d62:	17fd                	addi	a5,a5,-1
    80051d64:	fef43423          	sd	a5,-24(s0)
    80051d68:	fe843783          	ld	a5,-24(s0)
    80051d6c:	00078023          	sb	zero,0(a5)
    80051d70:	fe043703          	ld	a4,-32(s0)
    80051d74:	47a9                	li	a5,10
    80051d76:	02f777b3          	remu	a5,a4,a5
    80051d7a:	0ff7f793          	andi	a5,a5,255
    80051d7e:	fe843703          	ld	a4,-24(s0)
    80051d82:	177d                	addi	a4,a4,-1
    80051d84:	fee43423          	sd	a4,-24(s0)
    80051d88:	0307879b          	addiw	a5,a5,48
    80051d8c:	0ff7f713          	andi	a4,a5,255
    80051d90:	fe843783          	ld	a5,-24(s0)
    80051d94:	00e78023          	sb	a4,0(a5)
    80051d98:	fe043703          	ld	a4,-32(s0)
    80051d9c:	47a9                	li	a5,10
    80051d9e:	02f757b3          	divu	a5,a4,a5
    80051da2:	fef43023          	sd	a5,-32(s0)
    80051da6:	fe043783          	ld	a5,-32(s0)
    80051daa:	f3f9                	bnez	a5,80051d70 <Utos+0x2a>
    80051dac:	fe843783          	ld	a5,-24(s0)
    80051db0:	853e                	mv	a0,a5
    80051db2:	6462                	ld	s0,24(sp)
    80051db4:	6105                	addi	sp,sp,32
    80051db6:	8082                	ret

0000000080051db8 <xtos>:
    80051db8:	7179                	addi	sp,sp,-48
    80051dba:	f422                	sd	s0,40(sp)
    80051dbc:	1800                	addi	s0,sp,48
    80051dbe:	fca43c23          	sd	a0,-40(s0)
    80051dc2:	87ae                	mv	a5,a1
    80051dc4:	fcf42a23          	sw	a5,-44(s0)
    80051dc8:	0000f797          	auipc	a5,0xf
    80051dcc:	31078793          	addi	a5,a5,784 # 800610d8 <_rodata_start+0xd8>
    80051dd0:	fef43423          	sd	a5,-24(s0)
    80051dd4:	fd442783          	lw	a5,-44(s0)
    80051dd8:	2781                	sext.w	a5,a5
    80051dda:	ef99                	bnez	a5,80051df8 <xtos+0x40>
    80051ddc:	fd843783          	ld	a5,-40(s0)
    80051de0:	03000713          	li	a4,48
    80051de4:	00e78023          	sb	a4,0(a5)
    80051de8:	fd843783          	ld	a5,-40(s0)
    80051dec:	0785                	addi	a5,a5,1
    80051dee:	00078023          	sb	zero,0(a5)
    80051df2:	fd843783          	ld	a5,-40(s0)
    80051df6:	a8a9                	j	80051e50 <xtos+0x98>
    80051df8:	fd843783          	ld	a5,-40(s0)
    80051dfc:	07b1                	addi	a5,a5,12
    80051dfe:	fcf43c23          	sd	a5,-40(s0)
    80051e02:	fd843783          	ld	a5,-40(s0)
    80051e06:	17fd                	addi	a5,a5,-1
    80051e08:	fcf43c23          	sd	a5,-40(s0)
    80051e0c:	fd843783          	ld	a5,-40(s0)
    80051e10:	00078023          	sb	zero,0(a5)
    80051e14:	a805                	j	80051e44 <xtos+0x8c>
    80051e16:	fd446783          	lwu	a5,-44(s0)
    80051e1a:	8bbd                	andi	a5,a5,15
    80051e1c:	fe843703          	ld	a4,-24(s0)
    80051e20:	97ba                	add	a5,a5,a4
    80051e22:	fd843703          	ld	a4,-40(s0)
    80051e26:	177d                	addi	a4,a4,-1
    80051e28:	fce43c23          	sd	a4,-40(s0)
    80051e2c:	0007c703          	lbu	a4,0(a5)
    80051e30:	fd843783          	ld	a5,-40(s0)
    80051e34:	00e78023          	sb	a4,0(a5)
    80051e38:	fd442783          	lw	a5,-44(s0)
    80051e3c:	0047d79b          	srliw	a5,a5,0x4
    80051e40:	fcf42a23          	sw	a5,-44(s0)
    80051e44:	fd442783          	lw	a5,-44(s0)
    80051e48:	2781                	sext.w	a5,a5
    80051e4a:	f7f1                	bnez	a5,80051e16 <xtos+0x5e>
    80051e4c:	fd843783          	ld	a5,-40(s0)
    80051e50:	853e                	mv	a0,a5
    80051e52:	7422                	ld	s0,40(sp)
    80051e54:	6145                	addi	sp,sp,48
    80051e56:	8082                	ret

0000000080051e58 <Xtos>:
    80051e58:	7179                	addi	sp,sp,-48
    80051e5a:	f422                	sd	s0,40(sp)
    80051e5c:	1800                	addi	s0,sp,48
    80051e5e:	fca43c23          	sd	a0,-40(s0)
    80051e62:	fcb43823          	sd	a1,-48(s0)
    80051e66:	0000f797          	auipc	a5,0xf
    80051e6a:	27278793          	addi	a5,a5,626 # 800610d8 <_rodata_start+0xd8>
    80051e6e:	fef43423          	sd	a5,-24(s0)
    80051e72:	fd043783          	ld	a5,-48(s0)
    80051e76:	ef99                	bnez	a5,80051e94 <Xtos+0x3c>
    80051e78:	fd843783          	ld	a5,-40(s0)
    80051e7c:	03000713          	li	a4,48
    80051e80:	00e78023          	sb	a4,0(a5)
    80051e84:	fd843783          	ld	a5,-40(s0)
    80051e88:	0785                	addi	a5,a5,1
    80051e8a:	00078023          	sb	zero,0(a5)
    80051e8e:	fd843783          	ld	a5,-40(s0)
    80051e92:	a899                	j	80051ee8 <Xtos+0x90>
    80051e94:	fd843783          	ld	a5,-40(s0)
    80051e98:	07e1                	addi	a5,a5,24
    80051e9a:	fcf43c23          	sd	a5,-40(s0)
    80051e9e:	fd843783          	ld	a5,-40(s0)
    80051ea2:	17fd                	addi	a5,a5,-1
    80051ea4:	fcf43c23          	sd	a5,-40(s0)
    80051ea8:	fd843783          	ld	a5,-40(s0)
    80051eac:	00078023          	sb	zero,0(a5)
    80051eb0:	a03d                	j	80051ede <Xtos+0x86>
    80051eb2:	fd043783          	ld	a5,-48(s0)
    80051eb6:	8bbd                	andi	a5,a5,15
    80051eb8:	fe843703          	ld	a4,-24(s0)
    80051ebc:	97ba                	add	a5,a5,a4
    80051ebe:	fd843703          	ld	a4,-40(s0)
    80051ec2:	177d                	addi	a4,a4,-1
    80051ec4:	fce43c23          	sd	a4,-40(s0)
    80051ec8:	0007c703          	lbu	a4,0(a5)
    80051ecc:	fd843783          	ld	a5,-40(s0)
    80051ed0:	00e78023          	sb	a4,0(a5)
    80051ed4:	fd043783          	ld	a5,-48(s0)
    80051ed8:	8391                	srli	a5,a5,0x4
    80051eda:	fcf43823          	sd	a5,-48(s0)
    80051ede:	fd043783          	ld	a5,-48(s0)
    80051ee2:	fbe1                	bnez	a5,80051eb2 <Xtos+0x5a>
    80051ee4:	fd843783          	ld	a5,-40(s0)
    80051ee8:	853e                	mv	a0,a5
    80051eea:	7422                	ld	s0,40(sp)
    80051eec:	6145                	addi	sp,sp,48
    80051eee:	8082                	ret

0000000080051ef0 <eat_pad>:
    80051ef0:	7179                	addi	sp,sp,-48
    80051ef2:	f422                	sd	s0,40(sp)
    80051ef4:	1800                	addi	s0,sp,48
    80051ef6:	fca43c23          	sd	a0,-40(s0)
    80051efa:	fcb43823          	sd	a1,-48(s0)
    80051efe:	fd843783          	ld	a5,-40(s0)
    80051f02:	0007c783          	lbu	a5,0(a5)
    80051f06:	e781                	bnez	a5,80051f0e <eat_pad+0x1e>
    80051f08:	fd843783          	ld	a5,-40(s0)
    80051f0c:	a8c9                	j	80051fde <eat_pad+0xee>
    80051f0e:	fd043783          	ld	a5,-48(s0)
    80051f12:	0007a023          	sw	zero,0(a5)
    80051f16:	fd843783          	ld	a5,-40(s0)
    80051f1a:	0007c783          	lbu	a5,0(a5)
    80051f1e:	0007871b          	sext.w	a4,a5
    80051f22:	02d00793          	li	a5,45
    80051f26:	40f707b3          	sub	a5,a4,a5
    80051f2a:	0017b793          	seqz	a5,a5
    80051f2e:	0ff7f793          	andi	a5,a5,255
    80051f32:	fef42623          	sw	a5,-20(s0)
    80051f36:	fec42783          	lw	a5,-20(s0)
    80051f3a:	2781                	sext.w	a5,a5
    80051f3c:	eb91                	bnez	a5,80051f50 <eat_pad+0x60>
    80051f3e:	fd843783          	ld	a5,-40(s0)
    80051f42:	0007c783          	lbu	a5,0(a5)
    80051f46:	873e                	mv	a4,a5
    80051f48:	03000793          	li	a5,48
    80051f4c:	04f71763          	bne	a4,a5,80051f9a <eat_pad+0xaa>
    80051f50:	fd843783          	ld	a5,-40(s0)
    80051f54:	0785                	addi	a5,a5,1
    80051f56:	fcf43c23          	sd	a5,-40(s0)
    80051f5a:	a081                	j	80051f9a <eat_pad+0xaa>
    80051f5c:	fd043783          	ld	a5,-48(s0)
    80051f60:	439c                	lw	a5,0(a5)
    80051f62:	873e                	mv	a4,a5
    80051f64:	87ba                	mv	a5,a4
    80051f66:	0027979b          	slliw	a5,a5,0x2
    80051f6a:	9fb9                	addw	a5,a5,a4
    80051f6c:	0017979b          	slliw	a5,a5,0x1
    80051f70:	0007871b          	sext.w	a4,a5
    80051f74:	fd843783          	ld	a5,-40(s0)
    80051f78:	0007c783          	lbu	a5,0(a5)
    80051f7c:	2781                	sext.w	a5,a5
    80051f7e:	fd07879b          	addiw	a5,a5,-48
    80051f82:	2781                	sext.w	a5,a5
    80051f84:	9fb9                	addw	a5,a5,a4
    80051f86:	0007871b          	sext.w	a4,a5
    80051f8a:	fd043783          	ld	a5,-48(s0)
    80051f8e:	c398                	sw	a4,0(a5)
    80051f90:	fd843783          	ld	a5,-40(s0)
    80051f94:	0785                	addi	a5,a5,1
    80051f96:	fcf43c23          	sd	a5,-40(s0)
    80051f9a:	fd843783          	ld	a5,-40(s0)
    80051f9e:	0007c783          	lbu	a5,0(a5)
    80051fa2:	873e                	mv	a4,a5
    80051fa4:	02f00793          	li	a5,47
    80051fa8:	00e7fb63          	bgeu	a5,a4,80051fbe <eat_pad+0xce>
    80051fac:	fd843783          	ld	a5,-40(s0)
    80051fb0:	0007c783          	lbu	a5,0(a5)
    80051fb4:	873e                	mv	a4,a5
    80051fb6:	03900793          	li	a5,57
    80051fba:	fae7f1e3          	bgeu	a5,a4,80051f5c <eat_pad+0x6c>
    80051fbe:	fec42783          	lw	a5,-20(s0)
    80051fc2:	2781                	sext.w	a5,a5
    80051fc4:	cb99                	beqz	a5,80051fda <eat_pad+0xea>
    80051fc6:	fd043783          	ld	a5,-48(s0)
    80051fca:	439c                	lw	a5,0(a5)
    80051fcc:	40f007bb          	negw	a5,a5
    80051fd0:	0007871b          	sext.w	a4,a5
    80051fd4:	fd043783          	ld	a5,-48(s0)
    80051fd8:	c398                	sw	a4,0(a5)
    80051fda:	fd843783          	ld	a5,-40(s0)
    80051fde:	853e                	mv	a0,a5
    80051fe0:	7422                	ld	s0,40(sp)
    80051fe2:	6145                	addi	sp,sp,48
    80051fe4:	8082                	ret

0000000080051fe6 <vkprint>:
    80051fe6:	7119                	addi	sp,sp,-128
    80051fe8:	fc86                	sd	ra,120(sp)
    80051fea:	f8a2                	sd	s0,112(sp)
    80051fec:	0100                	addi	s0,sp,128
    80051fee:	f8a43423          	sd	a0,-120(s0)
    80051ff2:	f8b43023          	sd	a1,-128(s0)
    80051ff6:	00003797          	auipc	a5,0x3
    80051ffa:	06278793          	addi	a5,a5,98 # 80055058 <_kprint_putc>
    80051ffe:	639c                	ld	a5,0(a5)
    80052000:	3a078c63          	beqz	a5,800523b8 <vkprint+0x3d2>
    80052004:	fe042623          	sw	zero,-20(s0)
    80052008:	ae59                	j	8005239e <vkprint+0x3b8>
    8005200a:	feb44783          	lbu	a5,-21(s0)
    8005200e:	0ff7f713          	andi	a4,a5,255
    80052012:	02500793          	li	a5,37
    80052016:	00f71a63          	bne	a4,a5,8005202a <vkprint+0x44>
    8005201a:	fec42783          	lw	a5,-20(s0)
    8005201e:	2781                	sext.w	a5,a5
    80052020:	e789                	bnez	a5,8005202a <vkprint+0x44>
    80052022:	4785                	li	a5,1
    80052024:	fef42623          	sw	a5,-20(s0)
    80052028:	a6b5                	j	80052394 <vkprint+0x3ae>
    8005202a:	fec42783          	lw	a5,-20(s0)
    8005202e:	2781                	sext.w	a5,a5
    80052030:	34078763          	beqz	a5,8005237e <vkprint+0x398>
    80052034:	fe042223          	sw	zero,-28(s0)
    80052038:	fe442783          	lw	a5,-28(s0)
    8005203c:	fcf42823          	sw	a5,-48(s0)
    80052040:	feb44783          	lbu	a5,-21(s0)
    80052044:	0ff7f713          	andi	a4,a5,255
    80052048:	02d00793          	li	a5,45
    8005204c:	02f70a63          	beq	a4,a5,80052080 <vkprint+0x9a>
    80052050:	feb44783          	lbu	a5,-21(s0)
    80052054:	0ff7f713          	andi	a4,a5,255
    80052058:	03000793          	li	a5,48
    8005205c:	02f70263          	beq	a4,a5,80052080 <vkprint+0x9a>
    80052060:	feb44783          	lbu	a5,-21(s0)
    80052064:	0ff7f713          	andi	a4,a5,255
    80052068:	03000793          	li	a5,48
    8005206c:	04e7f763          	bgeu	a5,a4,800520ba <vkprint+0xd4>
    80052070:	feb44783          	lbu	a5,-21(s0)
    80052074:	0ff7f713          	andi	a4,a5,255
    80052078:	03900793          	li	a5,57
    8005207c:	02e7ef63          	bltu	a5,a4,800520ba <vkprint+0xd4>
    80052080:	feb44783          	lbu	a5,-21(s0)
    80052084:	0007871b          	sext.w	a4,a5
    80052088:	03000793          	li	a5,48
    8005208c:	40f707b3          	sub	a5,a4,a5
    80052090:	0017b793          	seqz	a5,a5
    80052094:	0ff7f793          	andi	a5,a5,255
    80052098:	fef42223          	sw	a5,-28(s0)
    8005209c:	fd040793          	addi	a5,s0,-48
    800520a0:	85be                	mv	a1,a5
    800520a2:	f8843503          	ld	a0,-120(s0)
    800520a6:	e4bff0ef          	jal	ra,80051ef0 <eat_pad>
    800520aa:	f8a43423          	sd	a0,-120(s0)
    800520ae:	f8843783          	ld	a5,-120(s0)
    800520b2:	0007c783          	lbu	a5,0(a5)
    800520b6:	fef405a3          	sb	a5,-21(s0)
    800520ba:	feb44783          	lbu	a5,-21(s0)
    800520be:	2781                	sext.w	a5,a5
    800520c0:	fdb7869b          	addiw	a3,a5,-37
    800520c4:	0006871b          	sext.w	a4,a3
    800520c8:	05400793          	li	a5,84
    800520cc:	2ae7e563          	bltu	a5,a4,80052376 <vkprint+0x390>
    800520d0:	02069793          	slli	a5,a3,0x20
    800520d4:	9381                	srli	a5,a5,0x20
    800520d6:	00279713          	slli	a4,a5,0x2
    800520da:	0000f797          	auipc	a5,0xf
    800520de:	09678793          	addi	a5,a5,150 # 80061170 <_rodata_start+0x170>
    800520e2:	97ba                	add	a5,a5,a4
    800520e4:	439c                	lw	a5,0(a5)
    800520e6:	0007871b          	sext.w	a4,a5
    800520ea:	0000f797          	auipc	a5,0xf
    800520ee:	08678793          	addi	a5,a5,134 # 80061170 <_rodata_start+0x170>
    800520f2:	97ba                	add	a5,a5,a4
    800520f4:	8782                	jr	a5
    800520f6:	0000f797          	auipc	a5,0xf
    800520fa:	ffa78793          	addi	a5,a5,-6 # 800610f0 <_rodata_start+0xf0>
    800520fe:	fcf43c23          	sd	a5,-40(s0)
    80052102:	a2f1                	j	800522ce <vkprint+0x2e8>
    80052104:	0000f797          	auipc	a5,0xf
    80052108:	ff478793          	addi	a5,a5,-12 # 800610f8 <_rodata_start+0xf8>
    8005210c:	fcf43c23          	sd	a5,-40(s0)
    80052110:	aa7d                	j	800522ce <vkprint+0x2e8>
    80052112:	0000f797          	auipc	a5,0xf
    80052116:	fee78793          	addi	a5,a5,-18 # 80061100 <_rodata_start+0x100>
    8005211a:	fcf43c23          	sd	a5,-40(s0)
    8005211e:	aa45                	j	800522ce <vkprint+0x2e8>
    80052120:	0000f797          	auipc	a5,0xf
    80052124:	fe878793          	addi	a5,a5,-24 # 80061108 <_rodata_start+0x108>
    80052128:	fcf43c23          	sd	a5,-40(s0)
    8005212c:	a24d                	j	800522ce <vkprint+0x2e8>
    8005212e:	0000f797          	auipc	a5,0xf
    80052132:	fe278793          	addi	a5,a5,-30 # 80061110 <_rodata_start+0x110>
    80052136:	fcf43c23          	sd	a5,-40(s0)
    8005213a:	aa51                	j	800522ce <vkprint+0x2e8>
    8005213c:	0000f797          	auipc	a5,0xf
    80052140:	fdc78793          	addi	a5,a5,-36 # 80061118 <_rodata_start+0x118>
    80052144:	fcf43c23          	sd	a5,-40(s0)
    80052148:	a259                	j	800522ce <vkprint+0x2e8>
    8005214a:	0000f797          	auipc	a5,0xf
    8005214e:	fd678793          	addi	a5,a5,-42 # 80061120 <_rodata_start+0x120>
    80052152:	fcf43c23          	sd	a5,-40(s0)
    80052156:	aaa5                	j	800522ce <vkprint+0x2e8>
    80052158:	0000f797          	auipc	a5,0xf
    8005215c:	fd078793          	addi	a5,a5,-48 # 80061128 <_rodata_start+0x128>
    80052160:	fcf43c23          	sd	a5,-40(s0)
    80052164:	a2ad                	j	800522ce <vkprint+0x2e8>
    80052166:	0000f797          	auipc	a5,0xf
    8005216a:	fca78793          	addi	a5,a5,-54 # 80061130 <_rodata_start+0x130>
    8005216e:	fcf43c23          	sd	a5,-40(s0)
    80052172:	aab1                	j	800522ce <vkprint+0x2e8>
    80052174:	0000f797          	auipc	a5,0xf
    80052178:	fc478793          	addi	a5,a5,-60 # 80061138 <_rodata_start+0x138>
    8005217c:	fcf43c23          	sd	a5,-40(s0)
    80052180:	a2b9                	j	800522ce <vkprint+0x2e8>
    80052182:	0000f797          	auipc	a5,0xf
    80052186:	fbe78793          	addi	a5,a5,-66 # 80061140 <_rodata_start+0x140>
    8005218a:	fcf43c23          	sd	a5,-40(s0)
    8005218e:	a281                	j	800522ce <vkprint+0x2e8>
    80052190:	0000f797          	auipc	a5,0xf
    80052194:	fb878793          	addi	a5,a5,-72 # 80061148 <_rodata_start+0x148>
    80052198:	fcf43c23          	sd	a5,-40(s0)
    8005219c:	aa0d                	j	800522ce <vkprint+0x2e8>
    8005219e:	0000f797          	auipc	a5,0xf
    800521a2:	fb278793          	addi	a5,a5,-78 # 80061150 <_rodata_start+0x150>
    800521a6:	fcf43c23          	sd	a5,-40(s0)
    800521aa:	a215                	j	800522ce <vkprint+0x2e8>
    800521ac:	0000f797          	auipc	a5,0xf
    800521b0:	fac78793          	addi	a5,a5,-84 # 80061158 <_rodata_start+0x158>
    800521b4:	fcf43c23          	sd	a5,-40(s0)
    800521b8:	aa19                	j	800522ce <vkprint+0x2e8>
    800521ba:	0000f797          	auipc	a5,0xf
    800521be:	fa678793          	addi	a5,a5,-90 # 80061160 <_rodata_start+0x160>
    800521c2:	fcf43c23          	sd	a5,-40(s0)
    800521c6:	a221                	j	800522ce <vkprint+0x2e8>
    800521c8:	0000f797          	auipc	a5,0xf
    800521cc:	fa078793          	addi	a5,a5,-96 # 80061168 <_rodata_start+0x168>
    800521d0:	fcf43c23          	sd	a5,-40(s0)
    800521d4:	a8ed                	j	800522ce <vkprint+0x2e8>
    800521d6:	f8043783          	ld	a5,-128(s0)
    800521da:	00878713          	addi	a4,a5,8
    800521de:	f8e43023          	sd	a4,-128(s0)
    800521e2:	439c                	lw	a5,0(a5)
    800521e4:	0ff7f713          	andi	a4,a5,255
    800521e8:	f9040793          	addi	a5,s0,-112
    800521ec:	85ba                	mv	a1,a4
    800521ee:	853e                	mv	a0,a5
    800521f0:	941ff0ef          	jal	ra,80051b30 <atos>
    800521f4:	fca43c23          	sd	a0,-40(s0)
    800521f8:	a8d9                	j	800522ce <vkprint+0x2e8>
    800521fa:	f8043783          	ld	a5,-128(s0)
    800521fe:	00878713          	addi	a4,a5,8
    80052202:	f8e43023          	sd	a4,-128(s0)
    80052206:	4398                	lw	a4,0(a5)
    80052208:	f9040793          	addi	a5,s0,-112
    8005220c:	85ba                	mv	a1,a4
    8005220e:	853e                	mv	a0,a5
    80052210:	953ff0ef          	jal	ra,80051b62 <dtos>
    80052214:	fca43c23          	sd	a0,-40(s0)
    80052218:	a85d                	j	800522ce <vkprint+0x2e8>
    8005221a:	f8043783          	ld	a5,-128(s0)
    8005221e:	00878713          	addi	a4,a5,8
    80052222:	f8e43023          	sd	a4,-128(s0)
    80052226:	6398                	ld	a4,0(a5)
    80052228:	f9040793          	addi	a5,s0,-112
    8005222c:	85ba                	mv	a1,a4
    8005222e:	853e                	mv	a0,a5
    80052230:	9edff0ef          	jal	ra,80051c1c <Dtos>
    80052234:	fca43c23          	sd	a0,-40(s0)
    80052238:	a859                	j	800522ce <vkprint+0x2e8>
    8005223a:	f8043783          	ld	a5,-128(s0)
    8005223e:	00878713          	addi	a4,a5,8
    80052242:	f8e43023          	sd	a4,-128(s0)
    80052246:	4398                	lw	a4,0(a5)
    80052248:	f9040793          	addi	a5,s0,-112
    8005224c:	85ba                	mv	a1,a4
    8005224e:	853e                	mv	a0,a5
    80052250:	a7fff0ef          	jal	ra,80051cce <utos>
    80052254:	fca43c23          	sd	a0,-40(s0)
    80052258:	a89d                	j	800522ce <vkprint+0x2e8>
    8005225a:	f8043783          	ld	a5,-128(s0)
    8005225e:	00878713          	addi	a4,a5,8
    80052262:	f8e43023          	sd	a4,-128(s0)
    80052266:	6398                	ld	a4,0(a5)
    80052268:	f9040793          	addi	a5,s0,-112
    8005226c:	85ba                	mv	a1,a4
    8005226e:	853e                	mv	a0,a5
    80052270:	ad7ff0ef          	jal	ra,80051d46 <Utos>
    80052274:	fca43c23          	sd	a0,-40(s0)
    80052278:	a899                	j	800522ce <vkprint+0x2e8>
    8005227a:	f8043783          	ld	a5,-128(s0)
    8005227e:	00878713          	addi	a4,a5,8
    80052282:	f8e43023          	sd	a4,-128(s0)
    80052286:	4398                	lw	a4,0(a5)
    80052288:	f9040793          	addi	a5,s0,-112
    8005228c:	85ba                	mv	a1,a4
    8005228e:	853e                	mv	a0,a5
    80052290:	b29ff0ef          	jal	ra,80051db8 <xtos>
    80052294:	fca43c23          	sd	a0,-40(s0)
    80052298:	a81d                	j	800522ce <vkprint+0x2e8>
    8005229a:	f8043783          	ld	a5,-128(s0)
    8005229e:	00878713          	addi	a4,a5,8
    800522a2:	f8e43023          	sd	a4,-128(s0)
    800522a6:	6398                	ld	a4,0(a5)
    800522a8:	f9040793          	addi	a5,s0,-112
    800522ac:	85ba                	mv	a1,a4
    800522ae:	853e                	mv	a0,a5
    800522b0:	ba9ff0ef          	jal	ra,80051e58 <Xtos>
    800522b4:	fca43c23          	sd	a0,-40(s0)
    800522b8:	a819                	j	800522ce <vkprint+0x2e8>
    800522ba:	f8043783          	ld	a5,-128(s0)
    800522be:	00878713          	addi	a4,a5,8
    800522c2:	f8e43023          	sd	a4,-128(s0)
    800522c6:	639c                	ld	a5,0(a5)
    800522c8:	fcf43c23          	sd	a5,-40(s0)
    800522cc:	0001                	nop
    800522ce:	fc042a23          	sw	zero,-44(s0)
    800522d2:	a031                	j	800522de <vkprint+0x2f8>
    800522d4:	fd442783          	lw	a5,-44(s0)
    800522d8:	2785                	addiw	a5,a5,1
    800522da:	fcf42a23          	sw	a5,-44(s0)
    800522de:	fd442783          	lw	a5,-44(s0)
    800522e2:	fd843703          	ld	a4,-40(s0)
    800522e6:	97ba                	add	a5,a5,a4
    800522e8:	0007c783          	lbu	a5,0(a5)
    800522ec:	f7e5                	bnez	a5,800522d4 <vkprint+0x2ee>
    800522ee:	a03d                	j	8005231c <vkprint+0x336>
    800522f0:	00003797          	auipc	a5,0x3
    800522f4:	d6878793          	addi	a5,a5,-664 # 80055058 <_kprint_putc>
    800522f8:	6398                	ld	a4,0(a5)
    800522fa:	fe442783          	lw	a5,-28(s0)
    800522fe:	2781                	sext.w	a5,a5
    80052300:	c781                	beqz	a5,80052308 <vkprint+0x322>
    80052302:	03000793          	li	a5,48
    80052306:	a019                	j	8005230c <vkprint+0x326>
    80052308:	02000793          	li	a5,32
    8005230c:	853e                	mv	a0,a5
    8005230e:	9702                	jalr	a4
    80052310:	fd042783          	lw	a5,-48(s0)
    80052314:	37fd                	addiw	a5,a5,-1
    80052316:	2781                	sext.w	a5,a5
    80052318:	fcf42823          	sw	a5,-48(s0)
    8005231c:	fd042703          	lw	a4,-48(s0)
    80052320:	fd442783          	lw	a5,-44(s0)
    80052324:	40f707bb          	subw	a5,a4,a5
    80052328:	2781                	sext.w	a5,a5
    8005232a:	fcf043e3          	bgtz	a5,800522f0 <vkprint+0x30a>
    8005232e:	fd843503          	ld	a0,-40(s0)
    80052332:	faeff0ef          	jal	ra,80051ae0 <_kputs>
    80052336:	a03d                	j	80052364 <vkprint+0x37e>
    80052338:	00003797          	auipc	a5,0x3
    8005233c:	d2078793          	addi	a5,a5,-736 # 80055058 <_kprint_putc>
    80052340:	6398                	ld	a4,0(a5)
    80052342:	fe442783          	lw	a5,-28(s0)
    80052346:	2781                	sext.w	a5,a5
    80052348:	c781                	beqz	a5,80052350 <vkprint+0x36a>
    8005234a:	03000793          	li	a5,48
    8005234e:	a019                	j	80052354 <vkprint+0x36e>
    80052350:	02000793          	li	a5,32
    80052354:	853e                	mv	a0,a5
    80052356:	9702                	jalr	a4
    80052358:	fd042783          	lw	a5,-48(s0)
    8005235c:	2785                	addiw	a5,a5,1
    8005235e:	2781                	sext.w	a5,a5
    80052360:	fcf42823          	sw	a5,-48(s0)
    80052364:	fd042783          	lw	a5,-48(s0)
    80052368:	fd442703          	lw	a4,-44(s0)
    8005236c:	9fb9                	addw	a5,a5,a4
    8005236e:	2781                	sext.w	a5,a5
    80052370:	fc07c4e3          	bltz	a5,80052338 <vkprint+0x352>
    80052374:	a011                	j	80052378 <vkprint+0x392>
    80052376:	0001                	nop
    80052378:	fe042623          	sw	zero,-20(s0)
    8005237c:	a821                	j	80052394 <vkprint+0x3ae>
    8005237e:	00003797          	auipc	a5,0x3
    80052382:	cda78793          	addi	a5,a5,-806 # 80055058 <_kprint_putc>
    80052386:	6398                	ld	a4,0(a5)
    80052388:	f8843783          	ld	a5,-120(s0)
    8005238c:	0007c783          	lbu	a5,0(a5)
    80052390:	853e                	mv	a0,a5
    80052392:	9702                	jalr	a4
    80052394:	f8843783          	ld	a5,-120(s0)
    80052398:	0785                	addi	a5,a5,1
    8005239a:	f8f43423          	sd	a5,-120(s0)
    8005239e:	f8843783          	ld	a5,-120(s0)
    800523a2:	0007c783          	lbu	a5,0(a5)
    800523a6:	fef405a3          	sb	a5,-21(s0)
    800523aa:	feb44783          	lbu	a5,-21(s0)
    800523ae:	0ff7f793          	andi	a5,a5,255
    800523b2:	c4079ce3          	bnez	a5,8005200a <vkprint+0x24>
    800523b6:	a011                	j	800523ba <vkprint+0x3d4>
    800523b8:	0001                	nop
    800523ba:	70e6                	ld	ra,120(sp)
    800523bc:	7446                	ld	s0,112(sp)
    800523be:	6109                	addi	sp,sp,128
    800523c0:	8082                	ret

00000000800523c2 <kprint>:
    800523c2:	7159                	addi	sp,sp,-112
    800523c4:	f406                	sd	ra,40(sp)
    800523c6:	f022                	sd	s0,32(sp)
    800523c8:	1800                	addi	s0,sp,48
    800523ca:	fca43c23          	sd	a0,-40(s0)
    800523ce:	e40c                	sd	a1,8(s0)
    800523d0:	e810                	sd	a2,16(s0)
    800523d2:	ec14                	sd	a3,24(s0)
    800523d4:	f018                	sd	a4,32(s0)
    800523d6:	f41c                	sd	a5,40(s0)
    800523d8:	03043823          	sd	a6,48(s0)
    800523dc:	03143c23          	sd	a7,56(s0)
    800523e0:	04040793          	addi	a5,s0,64
    800523e4:	fcf43823          	sd	a5,-48(s0)
    800523e8:	fd043783          	ld	a5,-48(s0)
    800523ec:	fc878793          	addi	a5,a5,-56
    800523f0:	fef43423          	sd	a5,-24(s0)
    800523f4:	fe843783          	ld	a5,-24(s0)
    800523f8:	85be                	mv	a1,a5
    800523fa:	fd843503          	ld	a0,-40(s0)
    800523fe:	be9ff0ef          	jal	ra,80051fe6 <vkprint>
    80052402:	0001                	nop
    80052404:	70a2                	ld	ra,40(sp)
    80052406:	7402                	ld	s0,32(sp)
    80052408:	6165                	addi	sp,sp,112
    8005240a:	8082                	ret

000000008005240c <kputc>:
    8005240c:	1101                	addi	sp,sp,-32
    8005240e:	ec06                	sd	ra,24(sp)
    80052410:	e822                	sd	s0,16(sp)
    80052412:	1000                	addi	s0,sp,32
    80052414:	87aa                	mv	a5,a0
    80052416:	fef407a3          	sb	a5,-17(s0)
    8005241a:	00003797          	auipc	a5,0x3
    8005241e:	c3e78793          	addi	a5,a5,-962 # 80055058 <_kprint_putc>
    80052422:	639c                	ld	a5,0(a5)
    80052424:	cb99                	beqz	a5,8005243a <kputc+0x2e>
    80052426:	00003797          	auipc	a5,0x3
    8005242a:	c3278793          	addi	a5,a5,-974 # 80055058 <_kprint_putc>
    8005242e:	6398                	ld	a4,0(a5)
    80052430:	fef44783          	lbu	a5,-17(s0)
    80052434:	853e                	mv	a0,a5
    80052436:	9702                	jalr	a4
    80052438:	a011                	j	8005243c <kputc+0x30>
    8005243a:	0001                	nop
    8005243c:	60e2                	ld	ra,24(sp)
    8005243e:	6442                	ld	s0,16(sp)
    80052440:	6105                	addi	sp,sp,32
    80052442:	8082                	ret

0000000080052444 <kgetc>:
    80052444:	1141                	addi	sp,sp,-16
    80052446:	e406                	sd	ra,8(sp)
    80052448:	e022                	sd	s0,0(sp)
    8005244a:	0800                	addi	s0,sp,16
    8005244c:	00003797          	auipc	a5,0x3
    80052450:	c1478793          	addi	a5,a5,-1004 # 80055060 <_kprint_getc>
    80052454:	639c                	ld	a5,0(a5)
    80052456:	e781                	bnez	a5,8005245e <kgetc+0x1a>
    80052458:	0ff00793          	li	a5,255
    8005245c:	a801                	j	8005246c <kgetc+0x28>
    8005245e:	00003797          	auipc	a5,0x3
    80052462:	c0278793          	addi	a5,a5,-1022 # 80055060 <_kprint_getc>
    80052466:	639c                	ld	a5,0(a5)
    80052468:	9782                	jalr	a5
    8005246a:	87aa                	mv	a5,a0
    8005246c:	853e                	mv	a0,a5
    8005246e:	60a2                	ld	ra,8(sp)
    80052470:	6402                	ld	s0,0(sp)
    80052472:	0141                	addi	sp,sp,16
    80052474:	8082                	ret

0000000080052476 <kprint_set_putc>:
    80052476:	1101                	addi	sp,sp,-32
    80052478:	ec22                	sd	s0,24(sp)
    8005247a:	1000                	addi	s0,sp,32
    8005247c:	fea43423          	sd	a0,-24(s0)
    80052480:	00003797          	auipc	a5,0x3
    80052484:	bd878793          	addi	a5,a5,-1064 # 80055058 <_kprint_putc>
    80052488:	fe843703          	ld	a4,-24(s0)
    8005248c:	e398                	sd	a4,0(a5)
    8005248e:	0001                	nop
    80052490:	6462                	ld	s0,24(sp)
    80052492:	6105                	addi	sp,sp,32
    80052494:	8082                	ret

0000000080052496 <kprint_set_getc>:
    80052496:	1101                	addi	sp,sp,-32
    80052498:	ec22                	sd	s0,24(sp)
    8005249a:	1000                	addi	s0,sp,32
    8005249c:	fea43423          	sd	a0,-24(s0)
    800524a0:	00003797          	auipc	a5,0x3
    800524a4:	bc078793          	addi	a5,a5,-1088 # 80055060 <_kprint_getc>
    800524a8:	fe843703          	ld	a4,-24(s0)
    800524ac:	e398                	sd	a4,0(a5)
    800524ae:	0001                	nop
    800524b0:	6462                	ld	s0,24(sp)
    800524b2:	6105                	addi	sp,sp,32
    800524b4:	8082                	ret

00000000800524b6 <find_bar>:
    800524b6:	7139                	addi	sp,sp,-64
    800524b8:	fc06                	sd	ra,56(sp)
    800524ba:	f822                	sd	s0,48(sp)
    800524bc:	0080                	addi	s0,sp,64
    800524be:	87aa                	mv	a5,a0
    800524c0:	86ae                	mv	a3,a1
    800524c2:	8732                	mv	a4,a2
    800524c4:	fcf41723          	sh	a5,-50(s0)
    800524c8:	87b6                	mv	a5,a3
    800524ca:	fcf41623          	sh	a5,-52(s0)
    800524ce:	87ba                	mv	a5,a4
    800524d0:	fcf405a3          	sb	a5,-53(s0)
    800524d4:	fe042623          	sw	zero,-20(s0)
    800524d8:	a0e9                	j	800525a2 <find_bar+0xec>
    800524da:	fe042423          	sw	zero,-24(s0)
    800524de:	a075                	j	8005258a <find_bar+0xd4>
    800524e0:	fec42783          	lw	a5,-20(s0)
    800524e4:	0ff7f793          	andi	a5,a5,255
    800524e8:	fe842703          	lw	a4,-24(s0)
    800524ec:	0ff77713          	andi	a4,a4,255
    800524f0:	4681                	li	a3,0
    800524f2:	4601                	li	a2,0
    800524f4:	85ba                	mv	a1,a4
    800524f6:	853e                	mv	a0,a5
    800524f8:	0c6000ef          	jal	ra,800525be <get_ecam>
    800524fc:	fea43023          	sd	a0,-32(s0)
    80052500:	fe043783          	ld	a5,-32(s0)
    80052504:	0007d783          	lhu	a5,0(a5)
    80052508:	17c2                	slli	a5,a5,0x30
    8005250a:	93c1                	srli	a5,a5,0x30
    8005250c:	fce45703          	lhu	a4,-50(s0)
    80052510:	2701                	sext.w	a4,a4
    80052512:	2781                	sext.w	a5,a5
    80052514:	06f71663          	bne	a4,a5,80052580 <find_bar+0xca>
    80052518:	fe043783          	ld	a5,-32(s0)
    8005251c:	0027d783          	lhu	a5,2(a5)
    80052520:	17c2                	slli	a5,a5,0x30
    80052522:	93c1                	srli	a5,a5,0x30
    80052524:	fcc45703          	lhu	a4,-52(s0)
    80052528:	2701                	sext.w	a4,a4
    8005252a:	2781                	sext.w	a5,a5
    8005252c:	04f71a63          	bne	a4,a5,80052580 <find_bar+0xca>
    80052530:	fcb44783          	lbu	a5,-53(s0)
    80052534:	2781                	sext.w	a5,a5
    80052536:	fe043703          	ld	a4,-32(s0)
    8005253a:	0791                	addi	a5,a5,4
    8005253c:	078a                	slli	a5,a5,0x2
    8005253e:	97ba                	add	a5,a5,a4
    80052540:	439c                	lw	a5,0(a5)
    80052542:	2781                	sext.w	a5,a5
    80052544:	0017d79b          	srliw	a5,a5,0x1
    80052548:	2781                	sext.w	a5,a5
    8005254a:	8b8d                	andi	a5,a5,3
    8005254c:	2781                	sext.w	a5,a5
    8005254e:	cb99                	beqz	a5,80052564 <find_bar+0xae>
    80052550:	fcb44783          	lbu	a5,-53(s0)
    80052554:	2781                	sext.w	a5,a5
    80052556:	0791                	addi	a5,a5,4
    80052558:	078a                	slli	a5,a5,0x2
    8005255a:	fe043703          	ld	a4,-32(s0)
    8005255e:	97ba                	add	a5,a5,a4
    80052560:	639c                	ld	a5,0(a5)
    80052562:	a889                	j	800525b4 <find_bar+0xfe>
    80052564:	fcb44783          	lbu	a5,-53(s0)
    80052568:	2781                	sext.w	a5,a5
    8005256a:	fe043703          	ld	a4,-32(s0)
    8005256e:	0791                	addi	a5,a5,4
    80052570:	078a                	slli	a5,a5,0x2
    80052572:	97ba                	add	a5,a5,a4
    80052574:	439c                	lw	a5,0(a5)
    80052576:	fcf42e23          	sw	a5,-36(s0)
    8005257a:	fdc46783          	lwu	a5,-36(s0)
    8005257e:	a81d                	j	800525b4 <find_bar+0xfe>
    80052580:	fe842783          	lw	a5,-24(s0)
    80052584:	2785                	addiw	a5,a5,1
    80052586:	fef42423          	sw	a5,-24(s0)
    8005258a:	fe842783          	lw	a5,-24(s0)
    8005258e:	0007871b          	sext.w	a4,a5
    80052592:	47fd                	li	a5,31
    80052594:	f4e7d6e3          	bge	a5,a4,800524e0 <find_bar+0x2a>
    80052598:	fec42783          	lw	a5,-20(s0)
    8005259c:	2785                	addiw	a5,a5,1
    8005259e:	fef42623          	sw	a5,-20(s0)
    800525a2:	fec42783          	lw	a5,-20(s0)
    800525a6:	0007871b          	sext.w	a4,a5
    800525aa:	0ff00793          	li	a5,255
    800525ae:	f2e7d6e3          	bge	a5,a4,800524da <find_bar+0x24>
    800525b2:	4781                	li	a5,0
    800525b4:	853e                	mv	a0,a5
    800525b6:	70e2                	ld	ra,56(sp)
    800525b8:	7442                	ld	s0,48(sp)
    800525ba:	6121                	addi	sp,sp,64
    800525bc:	8082                	ret

00000000800525be <get_ecam>:
    800525be:	7139                	addi	sp,sp,-64
    800525c0:	fc22                	sd	s0,56(sp)
    800525c2:	0080                	addi	s0,sp,64
    800525c4:	87aa                	mv	a5,a0
    800525c6:	8736                	mv	a4,a3
    800525c8:	fcf407a3          	sb	a5,-49(s0)
    800525cc:	87ae                	mv	a5,a1
    800525ce:	fcf40723          	sb	a5,-50(s0)
    800525d2:	87b2                	mv	a5,a2
    800525d4:	fcf406a3          	sb	a5,-51(s0)
    800525d8:	87ba                	mv	a5,a4
    800525da:	fcf41523          	sh	a5,-54(s0)
    800525de:	fcf44783          	lbu	a5,-49(s0)
    800525e2:	fef43423          	sd	a5,-24(s0)
    800525e6:	fce44783          	lbu	a5,-50(s0)
    800525ea:	8bfd                	andi	a5,a5,31
    800525ec:	fef43023          	sd	a5,-32(s0)
    800525f0:	fcd44783          	lbu	a5,-51(s0)
    800525f4:	8b9d                	andi	a5,a5,7
    800525f6:	fcf43c23          	sd	a5,-40(s0)
    800525fa:	fca45783          	lhu	a5,-54(s0)
    800525fe:	3ff7f793          	andi	a5,a5,1023
    80052602:	fcf43823          	sd	a5,-48(s0)
    80052606:	fe843783          	ld	a5,-24(s0)
    8005260a:	01479713          	slli	a4,a5,0x14
    8005260e:	fe043783          	ld	a5,-32(s0)
    80052612:	07be                	slli	a5,a5,0xf
    80052614:	8f5d                	or	a4,a4,a5
    80052616:	fd843783          	ld	a5,-40(s0)
    8005261a:	07b2                	slli	a5,a5,0xc
    8005261c:	8f5d                	or	a4,a4,a5
    8005261e:	fd043783          	ld	a5,-48(s0)
    80052622:	078a                	slli	a5,a5,0x2
    80052624:	8f5d                	or	a4,a4,a5
    80052626:	300007b7          	lui	a5,0x30000
    8005262a:	8fd9                	or	a5,a5,a4
    8005262c:	853e                	mv	a0,a5
    8005262e:	7462                	ld	s0,56(sp)
    80052630:	6121                	addi	sp,sp,64
    80052632:	8082                	ret

0000000080052634 <initpci>:
    80052634:	715d                	addi	sp,sp,-80
    80052636:	e486                	sd	ra,72(sp)
    80052638:	e0a2                	sd	s0,64(sp)
    8005263a:	0880                	addi	s0,sp,80
    8005263c:	400007b7          	lui	a5,0x40000
    80052640:	fef42223          	sw	a5,-28(s0)
    80052644:	fe042623          	sw	zero,-20(s0)
    80052648:	a611                	j	8005294c <initpci+0x318>
    8005264a:	fe042423          	sw	zero,-24(s0)
    8005264e:	a4dd                	j	80052934 <initpci+0x300>
    80052650:	fec42783          	lw	a5,-20(s0)
    80052654:	0ff7f793          	andi	a5,a5,255
    80052658:	fe842703          	lw	a4,-24(s0)
    8005265c:	0ff77713          	andi	a4,a4,255
    80052660:	4681                	li	a3,0
    80052662:	4601                	li	a2,0
    80052664:	85ba                	mv	a1,a4
    80052666:	853e                	mv	a0,a5
    80052668:	f57ff0ef          	jal	ra,800525be <get_ecam>
    8005266c:	fca43c23          	sd	a0,-40(s0)
    80052670:	fd843783          	ld	a5,-40(s0)
    80052674:	0007d783          	lhu	a5,0(a5) # 40000000 <i+0x3fffffe0>
    80052678:	17c2                	slli	a5,a5,0x30
    8005267a:	93c1                	srli	a5,a5,0x30
    8005267c:	0007871b          	sext.w	a4,a5
    80052680:	67c1                	lui	a5,0x10
    80052682:	17fd                	addi	a5,a5,-1
    80052684:	2af70263          	beq	a4,a5,80052928 <initpci+0x2f4>
    80052688:	fd843783          	ld	a5,-40(s0)
    8005268c:	00e7c783          	lbu	a5,14(a5) # 1000e <i+0xffee>
    80052690:	0ff7f793          	andi	a5,a5,255
    80052694:	873e                	mv	a4,a5
    80052696:	4785                	li	a5,1
    80052698:	08f71963          	bne	a4,a5,8005272a <initpci+0xf6>
    8005269c:	fd843783          	ld	a5,-40(s0)
    800526a0:	4719                	li	a4,6
    800526a2:	00e79223          	sh	a4,4(a5)
    800526a6:	fd843783          	ld	a5,-40(s0)
    800526aa:	6711                	lui	a4,0x4
    800526ac:	02e79023          	sh	a4,32(a5)
    800526b0:	fd843783          	ld	a5,-40(s0)
    800526b4:	6715                	lui	a4,0x5
    800526b6:	177d                	addi	a4,a4,-1
    800526b8:	02e79123          	sh	a4,34(a5)
    800526bc:	fd843783          	ld	a5,-40(s0)
    800526c0:	6715                	lui	a4,0x5
    800526c2:	177d                	addi	a4,a4,-1
    800526c4:	02e79323          	sh	a4,38(a5)
    800526c8:	fd843783          	ld	a5,-40(s0)
    800526cc:	6711                	lui	a4,0x4
    800526ce:	02e79223          	sh	a4,36(a5)
    800526d2:	fec42783          	lw	a5,-20(s0)
    800526d6:	0ff7f713          	andi	a4,a5,255
    800526da:	fd843783          	ld	a5,-40(s0)
    800526de:	00e78c23          	sb	a4,24(a5)
    800526e2:	00010797          	auipc	a5,0x10
    800526e6:	92678793          	addi	a5,a5,-1754 # 80062008 <pci_bus_no.0>
    800526ea:	439c                	lw	a5,0(a5)
    800526ec:	0ff7f713          	andi	a4,a5,255
    800526f0:	fd843783          	ld	a5,-40(s0)
    800526f4:	00e78ca3          	sb	a4,25(a5)
    800526f8:	00010797          	auipc	a5,0x10
    800526fc:	91078793          	addi	a5,a5,-1776 # 80062008 <pci_bus_no.0>
    80052700:	439c                	lw	a5,0(a5)
    80052702:	0ff7f713          	andi	a4,a5,255
    80052706:	fd843783          	ld	a5,-40(s0)
    8005270a:	00e78d23          	sb	a4,26(a5)
    8005270e:	00010797          	auipc	a5,0x10
    80052712:	8fa78793          	addi	a5,a5,-1798 # 80062008 <pci_bus_no.0>
    80052716:	439c                	lw	a5,0(a5)
    80052718:	2785                	addiw	a5,a5,1
    8005271a:	0007871b          	sext.w	a4,a5
    8005271e:	00010797          	auipc	a5,0x10
    80052722:	8ea78793          	addi	a5,a5,-1814 # 80062008 <pci_bus_no.0>
    80052726:	c398                	sw	a4,0(a5)
    80052728:	a409                	j	8005292a <initpci+0x2f6>
    8005272a:	fd843783          	ld	a5,-40(s0)
    8005272e:	00e7c783          	lbu	a5,14(a5)
    80052732:	0ff7f793          	andi	a5,a5,255
    80052736:	1e079a63          	bnez	a5,8005292a <initpci+0x2f6>
    8005273a:	fd843783          	ld	a5,-40(s0)
    8005273e:	4709                	li	a4,2
    80052740:	00e79223          	sh	a4,4(a5)
    80052744:	fe042023          	sw	zero,-32(s0)
    80052748:	aa55                	j	800528fc <initpci+0x2c8>
    8005274a:	fd843703          	ld	a4,-40(s0)
    8005274e:	fe042783          	lw	a5,-32(s0)
    80052752:	0791                	addi	a5,a5,4
    80052754:	078a                	slli	a5,a5,0x2
    80052756:	97ba                	add	a5,a5,a4
    80052758:	439c                	lw	a5,0(a5)
    8005275a:	2781                	sext.w	a5,a5
    8005275c:	0017d79b          	srliw	a5,a5,0x1
    80052760:	2781                	sext.w	a5,a5
    80052762:	2781                	sext.w	a5,a5
    80052764:	8b8d                	andi	a5,a5,3
    80052766:	fcf42a23          	sw	a5,-44(s0)
    8005276a:	fd442783          	lw	a5,-44(s0)
    8005276e:	2781                	sext.w	a5,a5
    80052770:	efdd                	bnez	a5,8005282e <initpci+0x1fa>
    80052772:	fa042e23          	sw	zero,-68(s0)
    80052776:	fd843783          	ld	a5,-40(s0)
    8005277a:	0047d783          	lhu	a5,4(a5)
    8005277e:	17c2                	slli	a5,a5,0x30
    80052780:	93c1                	srli	a5,a5,0x30
    80052782:	9bf5                	andi	a5,a5,-3
    80052784:	03079713          	slli	a4,a5,0x30
    80052788:	9341                	srli	a4,a4,0x30
    8005278a:	fd843783          	ld	a5,-40(s0)
    8005278e:	00e79223          	sh	a4,4(a5)
    80052792:	fd843703          	ld	a4,-40(s0)
    80052796:	fe042783          	lw	a5,-32(s0)
    8005279a:	0791                	addi	a5,a5,4
    8005279c:	078a                	slli	a5,a5,0x2
    8005279e:	97ba                	add	a5,a5,a4
    800527a0:	577d                	li	a4,-1
    800527a2:	c398                	sw	a4,0(a5)
    800527a4:	fd843703          	ld	a4,-40(s0)
    800527a8:	fe042783          	lw	a5,-32(s0)
    800527ac:	0791                	addi	a5,a5,4
    800527ae:	078a                	slli	a5,a5,0x2
    800527b0:	97ba                	add	a5,a5,a4
    800527b2:	439c                	lw	a5,0(a5)
    800527b4:	2781                	sext.w	a5,a5
    800527b6:	9bc1                	andi	a5,a5,-16
    800527b8:	2781                	sext.w	a5,a5
    800527ba:	40f007bb          	negw	a5,a5
    800527be:	faf42c23          	sw	a5,-72(s0)
    800527c2:	fb842783          	lw	a5,-72(s0)
    800527c6:	2781                	sext.w	a5,a5
    800527c8:	cf85                	beqz	a5,80052800 <initpci+0x1cc>
    800527ca:	fb842703          	lw	a4,-72(s0)
    800527ce:	fe442783          	lw	a5,-28(s0)
    800527d2:	9fb9                	addw	a5,a5,a4
    800527d4:	2781                	sext.w	a5,a5
    800527d6:	37fd                	addiw	a5,a5,-1
    800527d8:	0007871b          	sext.w	a4,a5
    800527dc:	fb842783          	lw	a5,-72(s0)
    800527e0:	40f007bb          	negw	a5,a5
    800527e4:	2781                	sext.w	a5,a5
    800527e6:	8ff9                	and	a5,a5,a4
    800527e8:	faf42e23          	sw	a5,-68(s0)
    800527ec:	fd843703          	ld	a4,-40(s0)
    800527f0:	fe042783          	lw	a5,-32(s0)
    800527f4:	0791                	addi	a5,a5,4
    800527f6:	078a                	slli	a5,a5,0x2
    800527f8:	97ba                	add	a5,a5,a4
    800527fa:	fbc42703          	lw	a4,-68(s0)
    800527fe:	c398                	sw	a4,0(a5)
    80052800:	fe442703          	lw	a4,-28(s0)
    80052804:	fb842783          	lw	a5,-72(s0)
    80052808:	9fb9                	addw	a5,a5,a4
    8005280a:	fef42223          	sw	a5,-28(s0)
    8005280e:	fd843783          	ld	a5,-40(s0)
    80052812:	0047d783          	lhu	a5,4(a5)
    80052816:	17c2                	slli	a5,a5,0x30
    80052818:	93c1                	srli	a5,a5,0x30
    8005281a:	0027e793          	ori	a5,a5,2
    8005281e:	03079713          	slli	a4,a5,0x30
    80052822:	9341                	srli	a4,a4,0x30
    80052824:	fd843783          	ld	a5,-40(s0)
    80052828:	00e79223          	sh	a4,4(a5)
    8005282c:	a0d9                	j	800528f2 <initpci+0x2be>
    8005282e:	fe042783          	lw	a5,-32(s0)
    80052832:	0007871b          	sext.w	a4,a5
    80052836:	4795                	li	a5,5
    80052838:	0af70d63          	beq	a4,a5,800528f2 <initpci+0x2be>
    8005283c:	fd843783          	ld	a5,-40(s0)
    80052840:	0047d783          	lhu	a5,4(a5)
    80052844:	17c2                	slli	a5,a5,0x30
    80052846:	93c1                	srli	a5,a5,0x30
    80052848:	9bf5                	andi	a5,a5,-3
    8005284a:	03079713          	slli	a4,a5,0x30
    8005284e:	9341                	srli	a4,a4,0x30
    80052850:	fd843783          	ld	a5,-40(s0)
    80052854:	00e79223          	sh	a4,4(a5)
    80052858:	fe042783          	lw	a5,-32(s0)
    8005285c:	0791                	addi	a5,a5,4
    8005285e:	078a                	slli	a5,a5,0x2
    80052860:	fd843703          	ld	a4,-40(s0)
    80052864:	97ba                	add	a5,a5,a4
    80052866:	577d                	li	a4,-1
    80052868:	e398                	sd	a4,0(a5)
    8005286a:	fe042783          	lw	a5,-32(s0)
    8005286e:	0791                	addi	a5,a5,4
    80052870:	078a                	slli	a5,a5,0x2
    80052872:	fd843703          	ld	a4,-40(s0)
    80052876:	97ba                	add	a5,a5,a4
    80052878:	639c                	ld	a5,0(a5)
    8005287a:	9bc1                	andi	a5,a5,-16
    8005287c:	40f007b3          	neg	a5,a5
    80052880:	fcf43423          	sd	a5,-56(s0)
    80052884:	fc843783          	ld	a5,-56(s0)
    80052888:	cb8d                	beqz	a5,800528ba <initpci+0x286>
    8005288a:	fe446703          	lwu	a4,-28(s0)
    8005288e:	fc843783          	ld	a5,-56(s0)
    80052892:	97ba                	add	a5,a5,a4
    80052894:	fff78713          	addi	a4,a5,-1
    80052898:	fc843783          	ld	a5,-56(s0)
    8005289c:	40f007b3          	neg	a5,a5
    800528a0:	8ff9                	and	a5,a5,a4
    800528a2:	fcf43023          	sd	a5,-64(s0)
    800528a6:	fe042783          	lw	a5,-32(s0)
    800528aa:	0791                	addi	a5,a5,4
    800528ac:	078a                	slli	a5,a5,0x2
    800528ae:	fd843703          	ld	a4,-40(s0)
    800528b2:	97ba                	add	a5,a5,a4
    800528b4:	fc043703          	ld	a4,-64(s0)
    800528b8:	e398                	sd	a4,0(a5)
    800528ba:	fc843783          	ld	a5,-56(s0)
    800528be:	2781                	sext.w	a5,a5
    800528c0:	fe442703          	lw	a4,-28(s0)
    800528c4:	9fb9                	addw	a5,a5,a4
    800528c6:	fef42223          	sw	a5,-28(s0)
    800528ca:	fd843783          	ld	a5,-40(s0)
    800528ce:	0047d783          	lhu	a5,4(a5)
    800528d2:	17c2                	slli	a5,a5,0x30
    800528d4:	93c1                	srli	a5,a5,0x30
    800528d6:	0027e793          	ori	a5,a5,2
    800528da:	03079713          	slli	a4,a5,0x30
    800528de:	9341                	srli	a4,a4,0x30
    800528e0:	fd843783          	ld	a5,-40(s0)
    800528e4:	00e79223          	sh	a4,4(a5)
    800528e8:	fe042783          	lw	a5,-32(s0)
    800528ec:	2785                	addiw	a5,a5,1
    800528ee:	fef42023          	sw	a5,-32(s0)
    800528f2:	fe042783          	lw	a5,-32(s0)
    800528f6:	2785                	addiw	a5,a5,1
    800528f8:	fef42023          	sw	a5,-32(s0)
    800528fc:	fe042783          	lw	a5,-32(s0)
    80052900:	0007871b          	sext.w	a4,a5
    80052904:	4795                	li	a5,5
    80052906:	e4e7d2e3          	bge	a5,a4,8005274a <initpci+0x116>
    8005290a:	fe442703          	lw	a4,-28(s0)
    8005290e:	010007b7          	lui	a5,0x1000
    80052912:	9fb9                	addw	a5,a5,a4
    80052914:	fef42223          	sw	a5,-28(s0)
    80052918:	fe442703          	lw	a4,-28(s0)
    8005291c:	ff0007b7          	lui	a5,0xff000
    80052920:	8ff9                	and	a5,a5,a4
    80052922:	fef42223          	sw	a5,-28(s0)
    80052926:	a011                	j	8005292a <initpci+0x2f6>
    80052928:	0001                	nop
    8005292a:	fe842783          	lw	a5,-24(s0)
    8005292e:	2785                	addiw	a5,a5,1
    80052930:	fef42423          	sw	a5,-24(s0)
    80052934:	fe842783          	lw	a5,-24(s0)
    80052938:	0007871b          	sext.w	a4,a5
    8005293c:	47fd                	li	a5,31
    8005293e:	d0e7d9e3          	bge	a5,a4,80052650 <initpci+0x1c>
    80052942:	fec42783          	lw	a5,-20(s0)
    80052946:	2785                	addiw	a5,a5,1
    80052948:	fef42623          	sw	a5,-20(s0)
    8005294c:	fec42783          	lw	a5,-20(s0)
    80052950:	0007871b          	sext.w	a4,a5
    80052954:	0ff00793          	li	a5,255
    80052958:	cee7d9e3          	bge	a5,a4,8005264a <initpci+0x16>
    8005295c:	4701                	li	a4,0
    8005295e:	ffffe697          	auipc	a3,0xffffe
    80052962:	3d468693          	addi	a3,a3,980 # 80050d32 <virt_rng_drive_init>
    80052966:	ffffe617          	auipc	a2,0xffffe
    8005296a:	64860613          	addi	a2,a2,1608 # 80050fae <virt_rng_drive>
    8005296e:	6785                	lui	a5,0x1
    80052970:	04478593          	addi	a1,a5,68 # 1044 <i+0x1024>
    80052974:	6789                	lui	a5,0x2
    80052976:	af478513          	addi	a0,a5,-1292 # 1af4 <i+0x1ad4>
    8005297a:	b37fd0ef          	jal	ra,800504b0 <pci_register_driver>
    8005297e:	4705                	li	a4,1
    80052980:	fffff697          	auipc	a3,0xfffff
    80052984:	84068693          	addi	a3,a3,-1984 # 800511c0 <virt_block_drive_init>
    80052988:	fffff617          	auipc	a2,0xfffff
    8005298c:	b0260613          	addi	a2,a2,-1278 # 8005148a <virt_block_drive>
    80052990:	6785                	lui	a5,0x1
    80052992:	04278593          	addi	a1,a5,66 # 1042 <i+0x1022>
    80052996:	6789                	lui	a5,0x2
    80052998:	af478513          	addi	a0,a5,-1292 # 1af4 <i+0x1ad4>
    8005299c:	b15fd0ef          	jal	ra,800504b0 <pci_register_driver>
    800529a0:	0001                	nop
    800529a2:	60a6                	ld	ra,72(sp)
    800529a4:	6406                	ld	s0,64(sp)
    800529a6:	6161                	addi	sp,sp,80
    800529a8:	8082                	ret

00000000800529aa <pci_set_capes>:
    800529aa:	715d                	addi	sp,sp,-80
    800529ac:	e486                	sd	ra,72(sp)
    800529ae:	e0a2                	sd	s0,64(sp)
    800529b0:	0880                	addi	s0,sp,80
    800529b2:	81010113          	addi	sp,sp,-2032 # 80072810 <_stack_start+0xf810>
    800529b6:	fe042623          	sw	zero,-20(s0)
    800529ba:	fe042423          	sw	zero,-24(s0)
    800529be:	aae9                	j	80052b98 <pci_set_capes+0x1ee>
    800529c0:	fe042223          	sw	zero,-28(s0)
    800529c4:	aa75                	j	80052b80 <pci_set_capes+0x1d6>
    800529c6:	fe842783          	lw	a5,-24(s0)
    800529ca:	0ff7f793          	andi	a5,a5,255
    800529ce:	fe442703          	lw	a4,-28(s0)
    800529d2:	0ff77713          	andi	a4,a4,255
    800529d6:	4681                	li	a3,0
    800529d8:	4601                	li	a2,0
    800529da:	85ba                	mv	a1,a4
    800529dc:	853e                	mv	a0,a5
    800529de:	be1ff0ef          	jal	ra,800525be <get_ecam>
    800529e2:	fca43c23          	sd	a0,-40(s0)
    800529e6:	fd843783          	ld	a5,-40(s0)
    800529ea:	0007d783          	lhu	a5,0(a5)
    800529ee:	17c2                	slli	a5,a5,0x30
    800529f0:	93c1                	srli	a5,a5,0x30
    800529f2:	0007871b          	sext.w	a4,a5
    800529f6:	67c1                	lui	a5,0x10
    800529f8:	17fd                	addi	a5,a5,-1
    800529fa:	16f70d63          	beq	a4,a5,80052b74 <pci_set_capes+0x1ca>
    800529fe:	fd843783          	ld	a5,-40(s0)
    80052a02:	00e7c783          	lbu	a5,14(a5) # 1000e <i+0xffee>
    80052a06:	0ff7f793          	andi	a5,a5,255
    80052a0a:	16079663          	bnez	a5,80052b76 <pci_set_capes+0x1cc>
    80052a0e:	fd843783          	ld	a5,-40(s0)
    80052a12:	0067d783          	lhu	a5,6(a5)
    80052a16:	17c2                	slli	a5,a5,0x30
    80052a18:	93c1                	srli	a5,a5,0x30
    80052a1a:	2781                	sext.w	a5,a5
    80052a1c:	8bc1                	andi	a5,a5,16
    80052a1e:	2781                	sext.w	a5,a5
    80052a20:	cfc1                	beqz	a5,80052ab8 <pci_set_capes+0x10e>
    80052a22:	fd843783          	ld	a5,-40(s0)
    80052a26:	0347c783          	lbu	a5,52(a5)
    80052a2a:	fef401a3          	sb	a5,-29(s0)
    80052a2e:	a041                	j	80052aae <pci_set_capes+0x104>
    80052a30:	fe842783          	lw	a5,-24(s0)
    80052a34:	0ff7f793          	andi	a5,a5,255
    80052a38:	fe442703          	lw	a4,-28(s0)
    80052a3c:	0ff77713          	andi	a4,a4,255
    80052a40:	4681                	li	a3,0
    80052a42:	4601                	li	a2,0
    80052a44:	85ba                	mv	a1,a4
    80052a46:	853e                	mv	a0,a5
    80052a48:	b77ff0ef          	jal	ra,800525be <get_ecam>
    80052a4c:	872a                	mv	a4,a0
    80052a4e:	fe344783          	lbu	a5,-29(s0)
    80052a52:	97ba                	add	a5,a5,a4
    80052a54:	fcf43823          	sd	a5,-48(s0)
    80052a58:	fd043783          	ld	a5,-48(s0)
    80052a5c:	fcf43423          	sd	a5,-56(s0)
    80052a60:	fc843783          	ld	a5,-56(s0)
    80052a64:	0007c783          	lbu	a5,0(a5)
    80052a68:	0007871b          	sext.w	a4,a5
    80052a6c:	86ba                	mv	a3,a4
    80052a6e:	47a5                	li	a5,9
    80052a70:	00f68663          	beq	a3,a5,80052a7c <pci_set_capes+0xd2>
    80052a74:	47c1                	li	a5,16
    80052a76:	02f70563          	beq	a4,a5,80052aa0 <pci_set_capes+0xf6>
    80052a7a:	a025                	j	80052aa2 <pci_set_capes+0xf8>
    80052a7c:	77fd                	lui	a5,0xfffff
    80052a7e:	ff040713          	addi	a4,s0,-16
    80052a82:	973e                	add	a4,a4,a5
    80052a84:	fec42783          	lw	a5,-20(s0)
    80052a88:	078e                	slli	a5,a5,0x3
    80052a8a:	97ba                	add	a5,a5,a4
    80052a8c:	fd043703          	ld	a4,-48(s0)
    80052a90:	7ce7b823          	sd	a4,2000(a5) # fffffffffffff7d0 <_heap_end+0xffffffff723af7d0>
    80052a94:	fec42783          	lw	a5,-20(s0)
    80052a98:	2785                	addiw	a5,a5,1
    80052a9a:	fef42623          	sw	a5,-20(s0)
    80052a9e:	a011                	j	80052aa2 <pci_set_capes+0xf8>
    80052aa0:	0001                	nop
    80052aa2:	fc843783          	ld	a5,-56(s0)
    80052aa6:	0017c783          	lbu	a5,1(a5)
    80052aaa:	fef401a3          	sb	a5,-29(s0)
    80052aae:	fe344783          	lbu	a5,-29(s0)
    80052ab2:	0ff7f793          	andi	a5,a5,255
    80052ab6:	ffad                	bnez	a5,80052a30 <pci_set_capes+0x86>
    80052ab8:	fd843783          	ld	a5,-40(s0)
    80052abc:	0007d783          	lhu	a5,0(a5)
    80052ac0:	03079713          	slli	a4,a5,0x30
    80052ac4:	9341                	srli	a4,a4,0x30
    80052ac6:	fd843783          	ld	a5,-40(s0)
    80052aca:	0027d783          	lhu	a5,2(a5)
    80052ace:	17c2                	slli	a5,a5,0x30
    80052ad0:	93c1                	srli	a5,a5,0x30
    80052ad2:	85be                	mv	a1,a5
    80052ad4:	853a                	mv	a0,a4
    80052ad6:	96ffd0ef          	jal	ra,80050444 <find_driver>
    80052ada:	fca43023          	sd	a0,-64(s0)
    80052ade:	fc043783          	ld	a5,-64(s0)
    80052ae2:	c7c9                	beqz	a5,80052b6c <pci_set_capes+0x1c2>
    80052ae4:	fe842703          	lw	a4,-24(s0)
    80052ae8:	fe442783          	lw	a5,-28(s0)
    80052aec:	9fb9                	addw	a5,a5,a4
    80052aee:	2781                	sext.w	a5,a5
    80052af0:	873e                	mv	a4,a5
    80052af2:	41f7579b          	sraiw	a5,a4,0x1f
    80052af6:	01e7d79b          	srliw	a5,a5,0x1e
    80052afa:	9f3d                	addw	a4,a4,a5
    80052afc:	8b0d                	andi	a4,a4,3
    80052afe:	40f707bb          	subw	a5,a4,a5
    80052b02:	2781                	sext.w	a5,a5
    80052b04:	0207879b          	addiw	a5,a5,32
    80052b08:	2781                	sext.w	a5,a5
    80052b0a:	873e                	mv	a4,a5
    80052b0c:	fc043783          	ld	a5,-64(s0)
    80052b10:	e798                	sd	a4,8(a5)
    80052b12:	fc043783          	ld	a5,-64(s0)
    80052b16:	0107d783          	lhu	a5,16(a5)
    80052b1a:	2781                	sext.w	a5,a5
    80052b1c:	c791                	beqz	a5,80052b28 <pci_set_capes+0x17e>
    80052b1e:	873e                	mv	a4,a5
    80052b20:	4785                	li	a5,1
    80052b22:	02f70463          	beq	a4,a5,80052b4a <pci_set_capes+0x1a0>
    80052b26:	a0a1                	j	80052b6e <pci_set_capes+0x1c4>
    80052b28:	fc043783          	ld	a5,-64(s0)
    80052b2c:	63b4                	ld	a3,64(a5)
    80052b2e:	fec42703          	lw	a4,-20(s0)
    80052b32:	77fd                	lui	a5,0xfffff
    80052b34:	7d078793          	addi	a5,a5,2000 # fffffffffffff7d0 <_heap_end+0xffffffff723af7d0>
    80052b38:	ff040613          	addi	a2,s0,-16
    80052b3c:	97b2                	add	a5,a5,a2
    80052b3e:	863a                	mv	a2,a4
    80052b40:	85be                	mv	a1,a5
    80052b42:	fc043503          	ld	a0,-64(s0)
    80052b46:	9682                	jalr	a3
    80052b48:	a01d                	j	80052b6e <pci_set_capes+0x1c4>
    80052b4a:	fc043783          	ld	a5,-64(s0)
    80052b4e:	63b4                	ld	a3,64(a5)
    80052b50:	fec42703          	lw	a4,-20(s0)
    80052b54:	77fd                	lui	a5,0xfffff
    80052b56:	7d078793          	addi	a5,a5,2000 # fffffffffffff7d0 <_heap_end+0xffffffff723af7d0>
    80052b5a:	ff040613          	addi	a2,s0,-16
    80052b5e:	97b2                	add	a5,a5,a2
    80052b60:	863a                	mv	a2,a4
    80052b62:	85be                	mv	a1,a5
    80052b64:	fc043503          	ld	a0,-64(s0)
    80052b68:	9682                	jalr	a3
    80052b6a:	a011                	j	80052b6e <pci_set_capes+0x1c4>
    80052b6c:	0001                	nop
    80052b6e:	fe042623          	sw	zero,-20(s0)
    80052b72:	a011                	j	80052b76 <pci_set_capes+0x1cc>
    80052b74:	0001                	nop
    80052b76:	fe442783          	lw	a5,-28(s0)
    80052b7a:	2785                	addiw	a5,a5,1
    80052b7c:	fef42223          	sw	a5,-28(s0)
    80052b80:	fe442783          	lw	a5,-28(s0)
    80052b84:	0007871b          	sext.w	a4,a5
    80052b88:	47fd                	li	a5,31
    80052b8a:	e2e7dee3          	bge	a5,a4,800529c6 <pci_set_capes+0x1c>
    80052b8e:	fe842783          	lw	a5,-24(s0)
    80052b92:	2785                	addiw	a5,a5,1
    80052b94:	fef42423          	sw	a5,-24(s0)
    80052b98:	fe842783          	lw	a5,-24(s0)
    80052b9c:	0007871b          	sext.w	a4,a5
    80052ba0:	0ff00793          	li	a5,255
    80052ba4:	e0e7dee3          	bge	a5,a4,800529c0 <pci_set_capes+0x16>
    80052ba8:	0001                	nop
    80052baa:	0001                	nop
    80052bac:	7f010113          	addi	sp,sp,2032
    80052bb0:	60a6                	ld	ra,72(sp)
    80052bb2:	6406                	ld	s0,64(sp)
    80052bb4:	6161                	addi	sp,sp,80
    80052bb6:	8082                	ret

0000000080052bb8 <pci_irq_handle>:
    80052bb8:	715d                	addi	sp,sp,-80
    80052bba:	e486                	sd	ra,72(sp)
    80052bbc:	e0a2                	sd	s0,64(sp)
    80052bbe:	0880                	addi	s0,sp,80
    80052bc0:	faa43c23          	sd	a0,-72(s0)
    80052bc4:	00002797          	auipc	a5,0x2
    80052bc8:	44c78793          	addi	a5,a5,1100 # 80055010 <dlist>
    80052bcc:	639c                	ld	a5,0(a5)
    80052bce:	fef43423          	sd	a5,-24(s0)
    80052bd2:	a231                	j	80052cde <pci_irq_handle+0x126>
    80052bd4:	fe843783          	ld	a5,-24(s0)
    80052bd8:	fcf43c23          	sd	a5,-40(s0)
    80052bdc:	fd843783          	ld	a5,-40(s0)
    80052be0:	679c                	ld	a5,8(a5)
    80052be2:	fb843703          	ld	a4,-72(s0)
    80052be6:	0ef71763          	bne	a4,a5,80052cd4 <pci_irq_handle+0x11c>
    80052bea:	fd843783          	ld	a5,-40(s0)
    80052bee:	7b9c                	ld	a5,48(a5)
    80052bf0:	6b9c                	ld	a5,16(a5)
    80052bf2:	439c                	lw	a5,0(a5)
    80052bf4:	8b85                	andi	a5,a5,1
    80052bf6:	0ff7f793          	andi	a5,a5,255
    80052bfa:	cfe9                	beqz	a5,80052cd4 <pci_irq_handle+0x11c>
    80052bfc:	a875                	j	80052cb8 <pci_irq_handle+0x100>
    80052bfe:	fd843783          	ld	a5,-40(s0)
    80052c02:	7b9c                	ld	a5,48(a5)
    80052c04:	7b98                	ld	a4,48(a5)
    80052c06:	fd843783          	ld	a5,-40(s0)
    80052c0a:	7b9c                	ld	a5,48(a5)
    80052c0c:	7b9c                	ld	a5,48(a5)
    80052c0e:	0027d783          	lhu	a5,2(a5)
    80052c12:	2781                	sext.w	a5,a5
    80052c14:	078e                	slli	a5,a5,0x3
    80052c16:	97ba                	add	a5,a5,a4
    80052c18:	43dc                	lw	a5,4(a5)
    80052c1a:	fcf42a23          	sw	a5,-44(s0)
    80052c1e:	fe042023          	sw	zero,-32(s0)
    80052c22:	a835                	j	80052c5e <pci_irq_handle+0xa6>
    80052c24:	00002697          	auipc	a3,0x2
    80052c28:	44468693          	addi	a3,a3,1092 # 80055068 <elems>
    80052c2c:	fe042703          	lw	a4,-32(s0)
    80052c30:	87ba                	mv	a5,a4
    80052c32:	078a                	slli	a5,a5,0x2
    80052c34:	97ba                	add	a5,a5,a4
    80052c36:	078e                	slli	a5,a5,0x3
    80052c38:	97b6                	add	a5,a5,a3
    80052c3a:	0007d783          	lhu	a5,0(a5)
    80052c3e:	0007871b          	sext.w	a4,a5
    80052c42:	fd442783          	lw	a5,-44(s0)
    80052c46:	2781                	sext.w	a5,a5
    80052c48:	00e79663          	bne	a5,a4,80052c54 <pci_irq_handle+0x9c>
    80052c4c:	fe042783          	lw	a5,-32(s0)
    80052c50:	fef42223          	sw	a5,-28(s0)
    80052c54:	fe042783          	lw	a5,-32(s0)
    80052c58:	2785                	addiw	a5,a5,1
    80052c5a:	fef42023          	sw	a5,-32(s0)
    80052c5e:	fd843783          	ld	a5,-40(s0)
    80052c62:	0287d783          	lhu	a5,40(a5)
    80052c66:	0007871b          	sext.w	a4,a5
    80052c6a:	fe042783          	lw	a5,-32(s0)
    80052c6e:	2781                	sext.w	a5,a5
    80052c70:	fae7cae3          	blt	a5,a4,80052c24 <pci_irq_handle+0x6c>
    80052c74:	00002697          	auipc	a3,0x2
    80052c78:	3f468693          	addi	a3,a3,1012 # 80055068 <elems>
    80052c7c:	fe446703          	lwu	a4,-28(s0)
    80052c80:	87ba                	mv	a5,a4
    80052c82:	078a                	slli	a5,a5,0x2
    80052c84:	97ba                	add	a5,a5,a4
    80052c86:	078e                	slli	a5,a5,0x3
    80052c88:	97b6                	add	a5,a5,a3
    80052c8a:	6b9c                	ld	a5,16(a5)
    80052c8c:	fcf43423          	sd	a5,-56(s0)
    80052c90:	fc843783          	ld	a5,-56(s0)
    80052c94:	0007c783          	lbu	a5,0(a5)
    80052c98:	2781                	sext.w	a5,a5
    80052c9a:	85be                	mv	a1,a5
    80052c9c:	0000e517          	auipc	a0,0xe
    80052ca0:	62c50513          	addi	a0,a0,1580 # 800612c8 <_rodata_start+0x2c8>
    80052ca4:	f1eff0ef          	jal	ra,800523c2 <kprint>
    80052ca8:	fd843783          	ld	a5,-40(s0)
    80052cac:	739c                	ld	a5,32(a5)
    80052cae:	00178713          	addi	a4,a5,1
    80052cb2:	fd843783          	ld	a5,-40(s0)
    80052cb6:	f398                	sd	a4,32(a5)
    80052cb8:	fd843783          	ld	a5,-40(s0)
    80052cbc:	7b9c                	ld	a5,48(a5)
    80052cbe:	7b9c                	ld	a5,48(a5)
    80052cc0:	0027d783          	lhu	a5,2(a5)
    80052cc4:	873e                	mv	a4,a5
    80052cc6:	fd843783          	ld	a5,-40(s0)
    80052cca:	739c                	ld	a5,32(a5)
    80052ccc:	f2f719e3          	bne	a4,a5,80052bfe <pci_irq_handle+0x46>
    80052cd0:	4781                	li	a5,0
    80052cd2:	a819                	j	80052ce8 <pci_irq_handle+0x130>
    80052cd4:	fe843783          	ld	a5,-24(s0)
    80052cd8:	67bc                	ld	a5,72(a5)
    80052cda:	fef43423          	sd	a5,-24(s0)
    80052cde:	fe843783          	ld	a5,-24(s0)
    80052ce2:	ee0799e3          	bnez	a5,80052bd4 <pci_irq_handle+0x1c>
    80052ce6:	57fd                	li	a5,-1
    80052ce8:	853e                	mv	a0,a5
    80052cea:	60a6                	ld	ra,72(sp)
    80052cec:	6406                	ld	s0,64(sp)
    80052cee:	6161                	addi	sp,sp,80
    80052cf0:	8082                	ret

0000000080052cf2 <mutex_trylock>:
    80052cf2:	7179                	addi	sp,sp,-48
    80052cf4:	f422                	sd	s0,40(sp)
    80052cf6:	1800                	addi	s0,sp,48
    80052cf8:	fca43c23          	sd	a0,-40(s0)
    80052cfc:	4785                	li	a5,1
    80052cfe:	fd843703          	ld	a4,-40(s0)
    80052d02:	0cf727af          	amoswap.w.aq	a5,a5,(a4)
    80052d06:	fef43423          	sd	a5,-24(s0)
    80052d0a:	fe843783          	ld	a5,-24(s0)
    80052d0e:	17fd                	addi	a5,a5,-1
    80052d10:	00f037b3          	snez	a5,a5
    80052d14:	0ff7f793          	andi	a5,a5,255
    80052d18:	853e                	mv	a0,a5
    80052d1a:	7422                	ld	s0,40(sp)
    80052d1c:	6145                	addi	sp,sp,48
    80052d1e:	8082                	ret

0000000080052d20 <mutex_unlock>:
    80052d20:	1101                	addi	sp,sp,-32
    80052d22:	ec22                	sd	s0,24(sp)
    80052d24:	1000                	addi	s0,sp,32
    80052d26:	fea43423          	sd	a0,-24(s0)
    80052d2a:	fe843783          	ld	a5,-24(s0)
    80052d2e:	0a07a02f          	amoswap.w.rl	zero,zero,(a5)
    80052d32:	0001                	nop
    80052d34:	6462                	ld	s0,24(sp)
    80052d36:	6105                	addi	sp,sp,32
    80052d38:	8082                	ret

0000000080052d3a <mutex_spinlock>:
    80052d3a:	1101                	addi	sp,sp,-32
    80052d3c:	ec06                	sd	ra,24(sp)
    80052d3e:	e822                	sd	s0,16(sp)
    80052d40:	1000                	addi	s0,sp,32
    80052d42:	fea43423          	sd	a0,-24(s0)
    80052d46:	0001                	nop
    80052d48:	fe843503          	ld	a0,-24(s0)
    80052d4c:	fa7ff0ef          	jal	ra,80052cf2 <mutex_trylock>
    80052d50:	87aa                	mv	a5,a0
    80052d52:	dbfd                	beqz	a5,80052d48 <mutex_spinlock+0xe>
    80052d54:	0001                	nop
    80052d56:	0001                	nop
    80052d58:	60e2                	ld	ra,24(sp)
    80052d5a:	6442                	ld	s0,16(sp)
    80052d5c:	6105                	addi	sp,sp,32
    80052d5e:	8082                	ret

0000000080052d60 <semaphore_trydown>:
    80052d60:	7179                	addi	sp,sp,-48
    80052d62:	f406                	sd	ra,40(sp)
    80052d64:	f022                	sd	s0,32(sp)
    80052d66:	1800                	addi	s0,sp,48
    80052d68:	fca43c23          	sd	a0,-40(s0)
    80052d6c:	fd843703          	ld	a4,-40(s0)
    80052d70:	57fd                	li	a5,-1
    80052d72:	00f727af          	amoadd.w	a5,a5,(a4)
    80052d76:	fef42623          	sw	a5,-20(s0)
    80052d7a:	fec42783          	lw	a5,-20(s0)
    80052d7e:	2781                	sext.w	a5,a5
    80052d80:	00f04663          	bgtz	a5,80052d8c <semaphore_trydown+0x2c>
    80052d84:	fd843503          	ld	a0,-40(s0)
    80052d88:	01c000ef          	jal	ra,80052da4 <semaphore_tryup>
    80052d8c:	fec42783          	lw	a5,-20(s0)
    80052d90:	2781                	sext.w	a5,a5
    80052d92:	00f027b3          	sgtz	a5,a5
    80052d96:	0ff7f793          	andi	a5,a5,255
    80052d9a:	853e                	mv	a0,a5
    80052d9c:	70a2                	ld	ra,40(sp)
    80052d9e:	7402                	ld	s0,32(sp)
    80052da0:	6145                	addi	sp,sp,48
    80052da2:	8082                	ret

0000000080052da4 <semaphore_tryup>:
    80052da4:	1101                	addi	sp,sp,-32
    80052da6:	ec22                	sd	s0,24(sp)
    80052da8:	1000                	addi	s0,sp,32
    80052daa:	fea43423          	sd	a0,-24(s0)
    80052dae:	fe843703          	ld	a4,-24(s0)
    80052db2:	4785                	li	a5,1
    80052db4:	00f7202f          	amoadd.w	zero,a5,(a4)
    80052db8:	0001                	nop
    80052dba:	6462                	ld	s0,24(sp)
    80052dbc:	6105                	addi	sp,sp,32
    80052dbe:	8082                	ret

0000000080052dc0 <print_prompt>:
    80052dc0:	1141                	addi	sp,sp,-16
    80052dc2:	e406                	sd	ra,8(sp)
    80052dc4:	e022                	sd	s0,0(sp)
    80052dc6:	0800                	addi	s0,sp,16
    80052dc8:	0000e517          	auipc	a0,0xe
    80052dcc:	51050513          	addi	a0,a0,1296 # 800612d8 <_rodata_start+0x2d8>
    80052dd0:	df2ff0ef          	jal	ra,800523c2 <kprint>
    80052dd4:	2bc010ef          	jal	ra,80054090 <print_unix_time>
    80052dd8:	0000e517          	auipc	a0,0xe
    80052ddc:	50850513          	addi	a0,a0,1288 # 800612e0 <_rodata_start+0x2e0>
    80052de0:	de2ff0ef          	jal	ra,800523c2 <kprint>
    80052de4:	0001                	nop
    80052de6:	60a2                	ld	ra,8(sp)
    80052de8:	6402                	ld	s0,0(sp)
    80052dea:	0141                	addi	sp,sp,16
    80052dec:	8082                	ret

0000000080052dee <print_prompt_failure>:
    80052dee:	1141                	addi	sp,sp,-16
    80052df0:	e406                	sd	ra,8(sp)
    80052df2:	e022                	sd	s0,0(sp)
    80052df4:	0800                	addi	s0,sp,16
    80052df6:	0000e517          	auipc	a0,0xe
    80052dfa:	4fa50513          	addi	a0,a0,1274 # 800612f0 <_rodata_start+0x2f0>
    80052dfe:	dc4ff0ef          	jal	ra,800523c2 <kprint>
    80052e02:	28e010ef          	jal	ra,80054090 <print_unix_time>
    80052e06:	0000e517          	auipc	a0,0xe
    80052e0a:	4f250513          	addi	a0,a0,1266 # 800612f8 <_rodata_start+0x2f8>
    80052e0e:	db4ff0ef          	jal	ra,800523c2 <kprint>
    80052e12:	0001                	nop
    80052e14:	60a2                	ld	ra,8(sp)
    80052e16:	6402                	ld	s0,0(sp)
    80052e18:	0141                	addi	sp,sp,16
    80052e1a:	8082                	ret

0000000080052e1c <tsh>:
    80052e1c:	bd010113          	addi	sp,sp,-1072
    80052e20:	42113423          	sd	ra,1064(sp)
    80052e24:	42813023          	sd	s0,1056(sp)
    80052e28:	43010413          	addi	s0,sp,1072
    80052e2c:	fe042623          	sw	zero,-20(s0)
    80052e30:	dc040c23          	sb	zero,-552(s0)
    80052e34:	bc040c23          	sb	zero,-1064(s0)
    80052e38:	fe042423          	sw	zero,-24(s0)
    80052e3c:	f85ff0ef          	jal	ra,80052dc0 <print_prompt>
    80052e40:	a019                	j	80052e46 <tsh+0x2a>
    80052e42:	10500073          	wfi
    80052e46:	2a4000ef          	jal	ra,800530ea <sbi_getchar>
    80052e4a:	87aa                	mv	a5,a0
    80052e4c:	fcf40fa3          	sb	a5,-33(s0)
    80052e50:	fdf44783          	lbu	a5,-33(s0)
    80052e54:	0ff7f713          	andi	a4,a5,255
    80052e58:	0ff00793          	li	a5,255
    80052e5c:	fef703e3          	beq	a4,a5,80052e42 <tsh+0x26>
    80052e60:	fdf44783          	lbu	a5,-33(s0)
    80052e64:	2781                	sext.w	a5,a5
    80052e66:	86be                	mv	a3,a5
    80052e68:	476d                	li	a4,27
    80052e6a:	04d74063          	blt	a4,a3,80052eaa <tsh+0x8e>
    80052e6e:	86be                	mv	a3,a5
    80052e70:	470d                	li	a4,3
    80052e72:	18e6c963          	blt	a3,a4,80053004 <tsh+0x1e8>
    80052e76:	ffd7869b          	addiw	a3,a5,-3
    80052e7a:	0006871b          	sext.w	a4,a3
    80052e7e:	47e1                	li	a5,24
    80052e80:	18e7e263          	bltu	a5,a4,80053004 <tsh+0x1e8>
    80052e84:	02069793          	slli	a5,a3,0x20
    80052e88:	9381                	srli	a5,a5,0x20
    80052e8a:	00279713          	slli	a4,a5,0x2
    80052e8e:	0000e797          	auipc	a5,0xe
    80052e92:	49678793          	addi	a5,a5,1174 # 80061324 <_rodata_start+0x324>
    80052e96:	97ba                	add	a5,a5,a4
    80052e98:	439c                	lw	a5,0(a5)
    80052e9a:	0007871b          	sext.w	a4,a5
    80052e9e:	0000e797          	auipc	a5,0xe
    80052ea2:	48678793          	addi	a5,a5,1158 # 80061324 <_rodata_start+0x324>
    80052ea6:	97ba                	add	a5,a5,a4
    80052ea8:	8782                	jr	a5
    80052eaa:	873e                	mv	a4,a5
    80052eac:	07f00793          	li	a5,127
    80052eb0:	04f70d63          	beq	a4,a5,80052f0a <tsh+0xee>
    80052eb4:	aa81                	j	80053004 <tsh+0x1e8>
    80052eb6:	dd840713          	addi	a4,s0,-552
    80052eba:	bd840793          	addi	a5,s0,-1064
    80052ebe:	85ba                	mv	a1,a4
    80052ec0:	853e                	mv	a0,a5
    80052ec2:	563000ef          	jal	ra,80053c24 <strcpy>
    80052ec6:	fec42783          	lw	a5,-20(s0)
    80052eca:	fef42423          	sw	a5,-24(s0)
    80052ece:	fec46783          	lwu	a5,-20(s0)
    80052ed2:	ff040713          	addi	a4,s0,-16
    80052ed6:	97ba                	add	a5,a5,a4
    80052ed8:	de078423          	sb	zero,-536(a5)
    80052edc:	0000e517          	auipc	a0,0xe
    80052ee0:	42c50513          	addi	a0,a0,1068 # 80061308 <_rodata_start+0x308>
    80052ee4:	cdeff0ef          	jal	ra,800523c2 <kprint>
    80052ee8:	dd840793          	addi	a5,s0,-552
    80052eec:	853e                	mv	a0,a5
    80052eee:	2f0010ef          	jal	ra,800541de <exec_cmd>
    80052ef2:	ecfff0ef          	jal	ra,80052dc0 <print_prompt>
    80052ef6:	fe042623          	sw	zero,-20(s0)
    80052efa:	a2b1                	j	80053046 <tsh+0x22a>
    80052efc:	dc040c23          	sb	zero,-552(s0)
    80052f00:	fe042623          	sw	zero,-20(s0)
    80052f04:	eebff0ef          	jal	ra,80052dee <print_prompt_failure>
    80052f08:	aa3d                	j	80053046 <tsh+0x22a>
    80052f0a:	fec42783          	lw	a5,-20(s0)
    80052f0e:	2781                	sext.w	a5,a5
    80052f10:	12078663          	beqz	a5,8005303c <tsh+0x220>
    80052f14:	0000e517          	auipc	a0,0xe
    80052f18:	3fc50513          	addi	a0,a0,1020 # 80061310 <_rodata_start+0x310>
    80052f1c:	ca6ff0ef          	jal	ra,800523c2 <kprint>
    80052f20:	fec42783          	lw	a5,-20(s0)
    80052f24:	37fd                	addiw	a5,a5,-1
    80052f26:	fef42623          	sw	a5,-20(s0)
    80052f2a:	aa09                	j	8005303c <tsh+0x220>
    80052f2c:	1be000ef          	jal	ra,800530ea <sbi_getchar>
    80052f30:	87aa                	mv	a5,a0
    80052f32:	fcf40f23          	sb	a5,-34(s0)
    80052f36:	fde44783          	lbu	a5,-34(s0)
    80052f3a:	0ff7f713          	andi	a4,a5,255
    80052f3e:	05b00793          	li	a5,91
    80052f42:	06f71663          	bne	a4,a5,80052fae <tsh+0x192>
    80052f46:	1a4000ef          	jal	ra,800530ea <sbi_getchar>
    80052f4a:	87aa                	mv	a5,a0
    80052f4c:	fcf40ea3          	sb	a5,-35(s0)
    80052f50:	fdd44783          	lbu	a5,-35(s0)
    80052f54:	2781                	sext.w	a5,a5
    80052f56:	873e                	mv	a4,a5
    80052f58:	04100793          	li	a5,65
    80052f5c:	0ef71263          	bne	a4,a5,80053040 <tsh+0x224>
    80052f60:	bd840713          	addi	a4,s0,-1064
    80052f64:	dd840793          	addi	a5,s0,-552
    80052f68:	85ba                	mv	a1,a4
    80052f6a:	853e                	mv	a0,a5
    80052f6c:	4b9000ef          	jal	ra,80053c24 <strcpy>
    80052f70:	fe842783          	lw	a5,-24(s0)
    80052f74:	fef42623          	sw	a5,-20(s0)
    80052f78:	fe042223          	sw	zero,-28(s0)
    80052f7c:	a005                	j	80052f9c <tsh+0x180>
    80052f7e:	fe446783          	lwu	a5,-28(s0)
    80052f82:	ff040713          	addi	a4,s0,-16
    80052f86:	97ba                	add	a5,a5,a4
    80052f88:	de87c783          	lbu	a5,-536(a5)
    80052f8c:	853e                	mv	a0,a5
    80052f8e:	13a000ef          	jal	ra,800530c8 <sbi_putchar>
    80052f92:	fe442783          	lw	a5,-28(s0)
    80052f96:	2785                	addiw	a5,a5,1
    80052f98:	fef42223          	sw	a5,-28(s0)
    80052f9c:	fe442703          	lw	a4,-28(s0)
    80052fa0:	fec42783          	lw	a5,-20(s0)
    80052fa4:	2701                	sext.w	a4,a4
    80052fa6:	2781                	sext.w	a5,a5
    80052fa8:	fcf76be3          	bltu	a4,a5,80052f7e <tsh+0x162>
    80052fac:	a011                	j	80052fb0 <tsh+0x194>
    80052fae:	0001                	nop
    80052fb0:	a841                	j	80053040 <tsh+0x224>
    80052fb2:	0000e517          	auipc	a0,0xe
    80052fb6:	36650513          	addi	a0,a0,870 # 80061318 <_rodata_start+0x318>
    80052fba:	c08ff0ef          	jal	ra,800523c2 <kprint>
    80052fbe:	0000e517          	auipc	a0,0xe
    80052fc2:	36250513          	addi	a0,a0,866 # 80061320 <_rodata_start+0x320>
    80052fc6:	bfcff0ef          	jal	ra,800523c2 <kprint>
    80052fca:	df7ff0ef          	jal	ra,80052dc0 <print_prompt>
    80052fce:	fe042023          	sw	zero,-32(s0)
    80052fd2:	a005                	j	80052ff2 <tsh+0x1d6>
    80052fd4:	fe046783          	lwu	a5,-32(s0)
    80052fd8:	ff040713          	addi	a4,s0,-16
    80052fdc:	97ba                	add	a5,a5,a4
    80052fde:	de87c783          	lbu	a5,-536(a5)
    80052fe2:	853e                	mv	a0,a5
    80052fe4:	0e4000ef          	jal	ra,800530c8 <sbi_putchar>
    80052fe8:	fe042783          	lw	a5,-32(s0)
    80052fec:	2785                	addiw	a5,a5,1
    80052fee:	fef42023          	sw	a5,-32(s0)
    80052ff2:	fe042703          	lw	a4,-32(s0)
    80052ff6:	fec42783          	lw	a5,-20(s0)
    80052ffa:	2701                	sext.w	a4,a4
    80052ffc:	2781                	sext.w	a5,a5
    80052ffe:	fcf76be3          	bltu	a4,a5,80052fd4 <tsh+0x1b8>
    80053002:	a091                	j	80053046 <tsh+0x22a>
    80053004:	fec42783          	lw	a5,-20(s0)
    80053008:	0007871b          	sext.w	a4,a5
    8005300c:	1ff00793          	li	a5,511
    80053010:	02e7ea63          	bltu	a5,a4,80053044 <tsh+0x228>
    80053014:	fec46783          	lwu	a5,-20(s0)
    80053018:	ff040713          	addi	a4,s0,-16
    8005301c:	97ba                	add	a5,a5,a4
    8005301e:	fdf44703          	lbu	a4,-33(s0)
    80053022:	dee78423          	sb	a4,-536(a5)
    80053026:	fec42783          	lw	a5,-20(s0)
    8005302a:	2785                	addiw	a5,a5,1
    8005302c:	fef42623          	sw	a5,-20(s0)
    80053030:	fdf44783          	lbu	a5,-33(s0)
    80053034:	853e                	mv	a0,a5
    80053036:	092000ef          	jal	ra,800530c8 <sbi_putchar>
    8005303a:	a029                	j	80053044 <tsh+0x228>
    8005303c:	0001                	nop
    8005303e:	b521                	j	80052e46 <tsh+0x2a>
    80053040:	0001                	nop
    80053042:	b511                	j	80052e46 <tsh+0x2a>
    80053044:	0001                	nop
    80053046:	b501                	j	80052e46 <tsh+0x2a>

0000000080053048 <main>:
    80053048:	1101                	addi	sp,sp,-32
    8005304a:	ec06                	sd	ra,24(sp)
    8005304c:	e822                	sd	s0,16(sp)
    8005304e:	1000                	addi	s0,sp,32
    80053050:	00000517          	auipc	a0,0x0
    80053054:	07850513          	addi	a0,a0,120 # 800530c8 <sbi_putchar>
    80053058:	c1eff0ef          	jal	ra,80052476 <kprint_set_putc>
    8005305c:	00000517          	auipc	a0,0x0
    80053060:	08e50513          	addi	a0,a0,142 # 800530ea <sbi_getchar>
    80053064:	c32ff0ef          	jal	ra,80052496 <kprint_set_getc>
    80053068:	3be000ef          	jal	ra,80053426 <plic_init>
    8005306c:	00001797          	auipc	a5,0x1
    80053070:	4d478793          	addi	a5,a5,1236 # 80054540 <sup_trap_vector>
    80053074:	10579073          	csrw	stvec,a5
    80053078:	0000c797          	auipc	a5,0xc
    8005307c:	ff078793          	addi	a5,a5,-16 # 8005f068 <SUP_GPREGS>
    80053080:	14079073          	csrw	sscratch,a5
    80053084:	20000793          	li	a5,512
    80053088:	10479073          	csrw	sie,a5
    8005308c:	508000ef          	jal	ra,80053594 <init_cont_page>
    80053090:	4505                	li	a0,1
    80053092:	5ae000ef          	jal	ra,80053640 <page_cont_falloc>
    80053096:	fea43423          	sd	a0,-24(s0)
    8005309a:	00002797          	auipc	a5,0x2
    8005309e:	f7e78793          	addi	a5,a5,-130 # 80055018 <kernel_page_table>
    800530a2:	fe843703          	ld	a4,-24(s0)
    800530a6:	e398                	sd	a4,0(a5)
    800530a8:	a27fd0ef          	jal	ra,80050ace <mmu_init>
    800530ac:	804fd0ef          	jal	ra,800500b0 <imalloc_init>
    800530b0:	d84ff0ef          	jal	ra,80052634 <initpci>
    800530b4:	8f7ff0ef          	jal	ra,800529aa <pci_set_capes>
    800530b8:	d65ff0ef          	jal	ra,80052e1c <tsh>
    800530bc:	4781                	li	a5,0
    800530be:	853e                	mv	a0,a5
    800530c0:	60e2                	ld	ra,24(sp)
    800530c2:	6442                	ld	s0,16(sp)
    800530c4:	6105                	addi	sp,sp,32
    800530c6:	8082                	ret

00000000800530c8 <sbi_putchar>:
    800530c8:	1101                	addi	sp,sp,-32
    800530ca:	ec22                	sd	s0,24(sp)
    800530cc:	1000                	addi	s0,sp,32
    800530ce:	87aa                	mv	a5,a0
    800530d0:	fef407a3          	sb	a5,-17(s0)
    800530d4:	4701                	li	a4,0
    800530d6:	fef44783          	lbu	a5,-17(s0)
    800530da:	88ba                	mv	a7,a4
    800530dc:	853e                	mv	a0,a5
    800530de:	00000073          	ecall
    800530e2:	0001                	nop
    800530e4:	6462                	ld	s0,24(sp)
    800530e6:	6105                	addi	sp,sp,32
    800530e8:	8082                	ret

00000000800530ea <sbi_getchar>:
    800530ea:	1101                	addi	sp,sp,-32
    800530ec:	ec22                	sd	s0,24(sp)
    800530ee:	1000                	addi	s0,sp,32
    800530f0:	4785                	li	a5,1
    800530f2:	88be                	mv	a7,a5
    800530f4:	00000073          	ecall
    800530f8:	87aa                	mv	a5,a0
    800530fa:	fef407a3          	sb	a5,-17(s0)
    800530fe:	fef44783          	lbu	a5,-17(s0)
    80053102:	853e                	mv	a0,a5
    80053104:	6462                	ld	s0,24(sp)
    80053106:	6105                	addi	sp,sp,32
    80053108:	8082                	ret

000000008005310a <sbi_hart_status>:
    8005310a:	7179                	addi	sp,sp,-48
    8005310c:	f422                	sd	s0,40(sp)
    8005310e:	1800                	addi	s0,sp,48
    80053110:	fca43c23          	sd	a0,-40(s0)
    80053114:	4789                	li	a5,2
    80053116:	fd843703          	ld	a4,-40(s0)
    8005311a:	88be                	mv	a7,a5
    8005311c:	853a                	mv	a0,a4
    8005311e:	00000073          	ecall
    80053122:	87aa                	mv	a5,a0
    80053124:	fef43423          	sd	a5,-24(s0)
    80053128:	fe843783          	ld	a5,-24(s0)
    8005312c:	853e                	mv	a0,a5
    8005312e:	7422                	ld	s0,40(sp)
    80053130:	6145                	addi	sp,sp,48
    80053132:	8082                	ret

0000000080053134 <sbi_system_off>:
    80053134:	1141                	addi	sp,sp,-16
    80053136:	e422                	sd	s0,8(sp)
    80053138:	0800                	addi	s0,sp,16
    8005313a:	478d                	li	a5,3
    8005313c:	88be                	mv	a7,a5
    8005313e:	00000073          	ecall
    80053142:	0001                	nop
    80053144:	6422                	ld	s0,8(sp)
    80053146:	0141                	addi	sp,sp,16
    80053148:	8082                	ret

000000008005314a <sbi_start_hart>:
    8005314a:	7139                	addi	sp,sp,-64
    8005314c:	fc22                	sd	s0,56(sp)
    8005314e:	0080                	addi	s0,sp,64
    80053150:	fca43c23          	sd	a0,-40(s0)
    80053154:	fcb43823          	sd	a1,-48(s0)
    80053158:	fcc43423          	sd	a2,-56(s0)
    8005315c:	4791                	li	a5,4
    8005315e:	fd843703          	ld	a4,-40(s0)
    80053162:	fd043683          	ld	a3,-48(s0)
    80053166:	fc843803          	ld	a6,-56(s0)
    8005316a:	88be                	mv	a7,a5
    8005316c:	853a                	mv	a0,a4
    8005316e:	85b6                	mv	a1,a3
    80053170:	8642                	mv	a2,a6
    80053172:	00000073          	ecall
    80053176:	87aa                	mv	a5,a0
    80053178:	fef42623          	sw	a5,-20(s0)
    8005317c:	fec42783          	lw	a5,-20(s0)
    80053180:	853e                	mv	a0,a5
    80053182:	7462                	ld	s0,56(sp)
    80053184:	6121                	addi	sp,sp,64
    80053186:	8082                	ret

0000000080053188 <sbi_stop_hart>:
    80053188:	1101                	addi	sp,sp,-32
    8005318a:	ec22                	sd	s0,24(sp)
    8005318c:	1000                	addi	s0,sp,32
    8005318e:	4795                	li	a5,5
    80053190:	88be                	mv	a7,a5
    80053192:	00000073          	ecall
    80053196:	853e                	mv	a0,a5
    80053198:	fef43423          	sd	a5,-24(s0)
    8005319c:	fe843783          	ld	a5,-24(s0)
    800531a0:	853e                	mv	a0,a5
    800531a2:	6462                	ld	s0,24(sp)
    800531a4:	6105                	addi	sp,sp,32
    800531a6:	8082                	ret

00000000800531a8 <sbi_get_time>:
    800531a8:	1101                	addi	sp,sp,-32
    800531aa:	ec22                	sd	s0,24(sp)
    800531ac:	1000                	addi	s0,sp,32
    800531ae:	4799                	li	a5,6
    800531b0:	88be                	mv	a7,a5
    800531b2:	00000073          	ecall
    800531b6:	87aa                	mv	a5,a0
    800531b8:	fef43423          	sd	a5,-24(s0)
    800531bc:	fe843783          	ld	a5,-24(s0)
    800531c0:	853e                	mv	a0,a5
    800531c2:	6462                	ld	s0,24(sp)
    800531c4:	6105                	addi	sp,sp,32
    800531c6:	8082                	ret

00000000800531c8 <sbi_set_timecmp>:
    800531c8:	1101                	addi	sp,sp,-32
    800531ca:	ec22                	sd	s0,24(sp)
    800531cc:	1000                	addi	s0,sp,32
    800531ce:	fea43423          	sd	a0,-24(s0)
    800531d2:	feb43023          	sd	a1,-32(s0)
    800531d6:	479d                	li	a5,7
    800531d8:	fe843703          	ld	a4,-24(s0)
    800531dc:	fe043683          	ld	a3,-32(s0)
    800531e0:	88be                	mv	a7,a5
    800531e2:	853a                	mv	a0,a4
    800531e4:	85b6                	mv	a1,a3
    800531e6:	00000073          	ecall
    800531ea:	0001                	nop
    800531ec:	6462                	ld	s0,24(sp)
    800531ee:	6105                	addi	sp,sp,32
    800531f0:	8082                	ret

00000000800531f2 <plic_set_priority>:
    800531f2:	7179                	addi	sp,sp,-48
    800531f4:	f422                	sd	s0,40(sp)
    800531f6:	1800                	addi	s0,sp,48
    800531f8:	87aa                	mv	a5,a0
    800531fa:	872e                	mv	a4,a1
    800531fc:	fcf42e23          	sw	a5,-36(s0)
    80053200:	87ba                	mv	a5,a4
    80053202:	fcf40da3          	sb	a5,-37(s0)
    80053206:	fdc42783          	lw	a5,-36(s0)
    8005320a:	0027979b          	slliw	a5,a5,0x2
    8005320e:	2781                	sext.w	a5,a5
    80053210:	873e                	mv	a4,a5
    80053212:	0c0007b7          	lui	a5,0xc000
    80053216:	97ba                	add	a5,a5,a4
    80053218:	fef43423          	sd	a5,-24(s0)
    8005321c:	fdb44783          	lbu	a5,-37(s0)
    80053220:	2781                	sext.w	a5,a5
    80053222:	8b9d                	andi	a5,a5,7
    80053224:	0007871b          	sext.w	a4,a5
    80053228:	fe843783          	ld	a5,-24(s0)
    8005322c:	c398                	sw	a4,0(a5)
    8005322e:	0001                	nop
    80053230:	7422                	ld	s0,40(sp)
    80053232:	6145                	addi	sp,sp,48
    80053234:	8082                	ret

0000000080053236 <plic_set_threshold>:
    80053236:	7179                	addi	sp,sp,-48
    80053238:	f422                	sd	s0,40(sp)
    8005323a:	1800                	addi	s0,sp,48
    8005323c:	87aa                	mv	a5,a0
    8005323e:	872e                	mv	a4,a1
    80053240:	fcf42e23          	sw	a5,-36(s0)
    80053244:	87ba                	mv	a5,a4
    80053246:	fcf40da3          	sb	a5,-37(s0)
    8005324a:	fdc42783          	lw	a5,-36(s0)
    8005324e:	0017979b          	slliw	a5,a5,0x1
    80053252:	2781                	sext.w	a5,a5
    80053254:	2785                	addiw	a5,a5,1
    80053256:	2781                	sext.w	a5,a5
    80053258:	00c7979b          	slliw	a5,a5,0xc
    8005325c:	2781                	sext.w	a5,a5
    8005325e:	873e                	mv	a4,a5
    80053260:	0c2007b7          	lui	a5,0xc200
    80053264:	97ba                	add	a5,a5,a4
    80053266:	fef43423          	sd	a5,-24(s0)
    8005326a:	fdb44783          	lbu	a5,-37(s0)
    8005326e:	2781                	sext.w	a5,a5
    80053270:	8b9d                	andi	a5,a5,7
    80053272:	0007871b          	sext.w	a4,a5
    80053276:	fe843783          	ld	a5,-24(s0)
    8005327a:	c398                	sw	a4,0(a5)
    8005327c:	0001                	nop
    8005327e:	7422                	ld	s0,40(sp)
    80053280:	6145                	addi	sp,sp,48
    80053282:	8082                	ret

0000000080053284 <plic_enable>:
    80053284:	7179                	addi	sp,sp,-48
    80053286:	f422                	sd	s0,40(sp)
    80053288:	1800                	addi	s0,sp,48
    8005328a:	87aa                	mv	a5,a0
    8005328c:	872e                	mv	a4,a1
    8005328e:	fcf42e23          	sw	a5,-36(s0)
    80053292:	87ba                	mv	a5,a4
    80053294:	fcf42c23          	sw	a5,-40(s0)
    80053298:	fdc42783          	lw	a5,-36(s0)
    8005329c:	0017979b          	slliw	a5,a5,0x1
    800532a0:	2781                	sext.w	a5,a5
    800532a2:	2785                	addiw	a5,a5,1
    800532a4:	2781                	sext.w	a5,a5
    800532a6:	0077979b          	slliw	a5,a5,0x7
    800532aa:	2781                	sext.w	a5,a5
    800532ac:	873e                	mv	a4,a5
    800532ae:	0c0027b7          	lui	a5,0xc002
    800532b2:	97ba                	add	a5,a5,a4
    800532b4:	fef43423          	sd	a5,-24(s0)
    800532b8:	fd842783          	lw	a5,-40(s0)
    800532bc:	41f7d71b          	sraiw	a4,a5,0x1f
    800532c0:	01b7571b          	srliw	a4,a4,0x1b
    800532c4:	9fb9                	addw	a5,a5,a4
    800532c6:	4057d79b          	sraiw	a5,a5,0x5
    800532ca:	0007869b          	sext.w	a3,a5
    800532ce:	87b6                	mv	a5,a3
    800532d0:	078a                	slli	a5,a5,0x2
    800532d2:	fe843703          	ld	a4,-24(s0)
    800532d6:	97ba                	add	a5,a5,a4
    800532d8:	438c                	lw	a1,0(a5)
    800532da:	fd842703          	lw	a4,-40(s0)
    800532de:	41f7579b          	sraiw	a5,a4,0x1f
    800532e2:	01b7d79b          	srliw	a5,a5,0x1b
    800532e6:	9f3d                	addw	a4,a4,a5
    800532e8:	8b7d                	andi	a4,a4,31
    800532ea:	40f707bb          	subw	a5,a4,a5
    800532ee:	2781                	sext.w	a5,a5
    800532f0:	873e                	mv	a4,a5
    800532f2:	4785                	li	a5,1
    800532f4:	00e797b3          	sll	a5,a5,a4
    800532f8:	0007861b          	sext.w	a2,a5
    800532fc:	87b6                	mv	a5,a3
    800532fe:	078a                	slli	a5,a5,0x2
    80053300:	fe843703          	ld	a4,-24(s0)
    80053304:	97ba                	add	a5,a5,a4
    80053306:	86ae                	mv	a3,a1
    80053308:	8732                	mv	a4,a2
    8005330a:	8f55                	or	a4,a4,a3
    8005330c:	2701                	sext.w	a4,a4
    8005330e:	c398                	sw	a4,0(a5)
    80053310:	0001                	nop
    80053312:	7422                	ld	s0,40(sp)
    80053314:	6145                	addi	sp,sp,48
    80053316:	8082                	ret

0000000080053318 <plic_disable>:
    80053318:	7179                	addi	sp,sp,-48
    8005331a:	f422                	sd	s0,40(sp)
    8005331c:	1800                	addi	s0,sp,48
    8005331e:	87aa                	mv	a5,a0
    80053320:	872e                	mv	a4,a1
    80053322:	fcf42e23          	sw	a5,-36(s0)
    80053326:	87ba                	mv	a5,a4
    80053328:	fcf42c23          	sw	a5,-40(s0)
    8005332c:	fdc42783          	lw	a5,-36(s0)
    80053330:	0017979b          	slliw	a5,a5,0x1
    80053334:	2781                	sext.w	a5,a5
    80053336:	2785                	addiw	a5,a5,1
    80053338:	2781                	sext.w	a5,a5
    8005333a:	0077979b          	slliw	a5,a5,0x7
    8005333e:	2781                	sext.w	a5,a5
    80053340:	873e                	mv	a4,a5
    80053342:	0c0027b7          	lui	a5,0xc002
    80053346:	97ba                	add	a5,a5,a4
    80053348:	fef43423          	sd	a5,-24(s0)
    8005334c:	fd842783          	lw	a5,-40(s0)
    80053350:	41f7d71b          	sraiw	a4,a5,0x1f
    80053354:	01b7571b          	srliw	a4,a4,0x1b
    80053358:	9fb9                	addw	a5,a5,a4
    8005335a:	4057d79b          	sraiw	a5,a5,0x5
    8005335e:	0007869b          	sext.w	a3,a5
    80053362:	87b6                	mv	a5,a3
    80053364:	078a                	slli	a5,a5,0x2
    80053366:	fe843703          	ld	a4,-24(s0)
    8005336a:	97ba                	add	a5,a5,a4
    8005336c:	438c                	lw	a1,0(a5)
    8005336e:	fd842703          	lw	a4,-40(s0)
    80053372:	41f7579b          	sraiw	a5,a4,0x1f
    80053376:	01b7d79b          	srliw	a5,a5,0x1b
    8005337a:	9f3d                	addw	a4,a4,a5
    8005337c:	8b7d                	andi	a4,a4,31
    8005337e:	40f707bb          	subw	a5,a4,a5
    80053382:	2781                	sext.w	a5,a5
    80053384:	873e                	mv	a4,a5
    80053386:	4785                	li	a5,1
    80053388:	00e797b3          	sll	a5,a5,a4
    8005338c:	2781                	sext.w	a5,a5
    8005338e:	fff7c793          	not	a5,a5
    80053392:	0007861b          	sext.w	a2,a5
    80053396:	87b6                	mv	a5,a3
    80053398:	078a                	slli	a5,a5,0x2
    8005339a:	fe843703          	ld	a4,-24(s0)
    8005339e:	97ba                	add	a5,a5,a4
    800533a0:	86ae                	mv	a3,a1
    800533a2:	8732                	mv	a4,a2
    800533a4:	8f75                	and	a4,a4,a3
    800533a6:	2701                	sext.w	a4,a4
    800533a8:	c398                	sw	a4,0(a5)
    800533aa:	0001                	nop
    800533ac:	7422                	ld	s0,40(sp)
    800533ae:	6145                	addi	sp,sp,48
    800533b0:	8082                	ret

00000000800533b2 <plic_claim>:
    800533b2:	7179                	addi	sp,sp,-48
    800533b4:	f422                	sd	s0,40(sp)
    800533b6:	1800                	addi	s0,sp,48
    800533b8:	fca43c23          	sd	a0,-40(s0)
    800533bc:	fd843783          	ld	a5,-40(s0)
    800533c0:	00d79713          	slli	a4,a5,0xd
    800533c4:	0c2017b7          	lui	a5,0xc201
    800533c8:	0791                	addi	a5,a5,4
    800533ca:	97ba                	add	a5,a5,a4
    800533cc:	fef43423          	sd	a5,-24(s0)
    800533d0:	fe843783          	ld	a5,-24(s0)
    800533d4:	439c                	lw	a5,0(a5)
    800533d6:	853e                	mv	a0,a5
    800533d8:	7422                	ld	s0,40(sp)
    800533da:	6145                	addi	sp,sp,48
    800533dc:	8082                	ret

00000000800533de <plic_complete>:
    800533de:	7179                	addi	sp,sp,-48
    800533e0:	f422                	sd	s0,40(sp)
    800533e2:	1800                	addi	s0,sp,48
    800533e4:	87aa                	mv	a5,a0
    800533e6:	872e                	mv	a4,a1
    800533e8:	fcf42e23          	sw	a5,-36(s0)
    800533ec:	87ba                	mv	a5,a4
    800533ee:	fcf42c23          	sw	a5,-40(s0)
    800533f2:	fdc42783          	lw	a5,-36(s0)
    800533f6:	0017979b          	slliw	a5,a5,0x1
    800533fa:	2781                	sext.w	a5,a5
    800533fc:	2785                	addiw	a5,a5,1
    800533fe:	2781                	sext.w	a5,a5
    80053400:	00c7979b          	slliw	a5,a5,0xc
    80053404:	2781                	sext.w	a5,a5
    80053406:	873e                	mv	a4,a5
    80053408:	0c2007b7          	lui	a5,0xc200
    8005340c:	0791                	addi	a5,a5,4
    8005340e:	97ba                	add	a5,a5,a4
    80053410:	fef43423          	sd	a5,-24(s0)
    80053414:	fd842703          	lw	a4,-40(s0)
    80053418:	fe843783          	ld	a5,-24(s0)
    8005341c:	c398                	sw	a4,0(a5)
    8005341e:	0001                	nop
    80053420:	7422                	ld	s0,40(sp)
    80053422:	6145                	addi	sp,sp,48
    80053424:	8082                	ret

0000000080053426 <plic_init>:
    80053426:	1141                	addi	sp,sp,-16
    80053428:	e406                	sd	ra,8(sp)
    8005342a:	e022                	sd	s0,0(sp)
    8005342c:	0800                	addi	s0,sp,16
    8005342e:	02000593          	li	a1,32
    80053432:	4501                	li	a0,0
    80053434:	e51ff0ef          	jal	ra,80053284 <plic_enable>
    80053438:	459d                	li	a1,7
    8005343a:	02000513          	li	a0,32
    8005343e:	db5ff0ef          	jal	ra,800531f2 <plic_set_priority>
    80053442:	02100593          	li	a1,33
    80053446:	4501                	li	a0,0
    80053448:	e3dff0ef          	jal	ra,80053284 <plic_enable>
    8005344c:	459d                	li	a1,7
    8005344e:	02100513          	li	a0,33
    80053452:	da1ff0ef          	jal	ra,800531f2 <plic_set_priority>
    80053456:	02200593          	li	a1,34
    8005345a:	4501                	li	a0,0
    8005345c:	e29ff0ef          	jal	ra,80053284 <plic_enable>
    80053460:	459d                	li	a1,7
    80053462:	02200513          	li	a0,34
    80053466:	d8dff0ef          	jal	ra,800531f2 <plic_set_priority>
    8005346a:	02300593          	li	a1,35
    8005346e:	4501                	li	a0,0
    80053470:	e15ff0ef          	jal	ra,80053284 <plic_enable>
    80053474:	459d                	li	a1,7
    80053476:	02300513          	li	a0,35
    8005347a:	d79ff0ef          	jal	ra,800531f2 <plic_set_priority>
    8005347e:	4581                	li	a1,0
    80053480:	4501                	li	a0,0
    80053482:	db5ff0ef          	jal	ra,80053236 <plic_set_threshold>
    80053486:	0001                	nop
    80053488:	60a2                	ld	ra,8(sp)
    8005348a:	6402                	ld	s0,0(sp)
    8005348c:	0141                	addi	sp,sp,16
    8005348e:	8082                	ret

0000000080053490 <plic_handle_irq>:
    80053490:	7179                	addi	sp,sp,-48
    80053492:	f406                	sd	ra,40(sp)
    80053494:	f022                	sd	s0,32(sp)
    80053496:	1800                	addi	s0,sp,48
    80053498:	fca43c23          	sd	a0,-40(s0)
    8005349c:	4501                	li	a0,0
    8005349e:	f15ff0ef          	jal	ra,800533b2 <plic_claim>
    800534a2:	87aa                	mv	a5,a0
    800534a4:	2781                	sext.w	a5,a5
    800534a6:	1782                	slli	a5,a5,0x20
    800534a8:	9381                	srli	a5,a5,0x20
    800534aa:	fef43423          	sd	a5,-24(s0)
    800534ae:	fe843703          	ld	a4,-24(s0)
    800534b2:	02300793          	li	a5,35
    800534b6:	0af70763          	beq	a4,a5,80053564 <plic_handle_irq+0xd4>
    800534ba:	fe843703          	ld	a4,-24(s0)
    800534be:	02300793          	li	a5,35
    800534c2:	0ce7e363          	bltu	a5,a4,80053588 <plic_handle_irq+0xf8>
    800534c6:	fe843703          	ld	a4,-24(s0)
    800534ca:	02200793          	li	a5,34
    800534ce:	06f70963          	beq	a4,a5,80053540 <plic_handle_irq+0xb0>
    800534d2:	fe843703          	ld	a4,-24(s0)
    800534d6:	02200793          	li	a5,34
    800534da:	0ae7e763          	bltu	a5,a4,80053588 <plic_handle_irq+0xf8>
    800534de:	fe843703          	ld	a4,-24(s0)
    800534e2:	02000793          	li	a5,32
    800534e6:	00f70963          	beq	a4,a5,800534f8 <plic_handle_irq+0x68>
    800534ea:	fe843703          	ld	a4,-24(s0)
    800534ee:	02100793          	li	a5,33
    800534f2:	02f70563          	beq	a4,a5,8005351c <plic_handle_irq+0x8c>
    800534f6:	a849                	j	80053588 <plic_handle_irq+0xf8>
    800534f8:	0000e517          	auipc	a0,0xe
    800534fc:	e9050513          	addi	a0,a0,-368 # 80061388 <_rodata_start+0x388>
    80053500:	ec3fe0ef          	jal	ra,800523c2 <kprint>
    80053504:	fe843503          	ld	a0,-24(s0)
    80053508:	eb0ff0ef          	jal	ra,80052bb8 <pci_irq_handle>
    8005350c:	fe843783          	ld	a5,-24(s0)
    80053510:	2781                	sext.w	a5,a5
    80053512:	85be                	mv	a1,a5
    80053514:	4501                	li	a0,0
    80053516:	ec9ff0ef          	jal	ra,800533de <plic_complete>
    8005351a:	a885                	j	8005358a <plic_handle_irq+0xfa>
    8005351c:	0000e517          	auipc	a0,0xe
    80053520:	e6c50513          	addi	a0,a0,-404 # 80061388 <_rodata_start+0x388>
    80053524:	e9ffe0ef          	jal	ra,800523c2 <kprint>
    80053528:	fe843503          	ld	a0,-24(s0)
    8005352c:	e8cff0ef          	jal	ra,80052bb8 <pci_irq_handle>
    80053530:	fe843783          	ld	a5,-24(s0)
    80053534:	2781                	sext.w	a5,a5
    80053536:	85be                	mv	a1,a5
    80053538:	4501                	li	a0,0
    8005353a:	ea5ff0ef          	jal	ra,800533de <plic_complete>
    8005353e:	a0b1                	j	8005358a <plic_handle_irq+0xfa>
    80053540:	0000e517          	auipc	a0,0xe
    80053544:	e4850513          	addi	a0,a0,-440 # 80061388 <_rodata_start+0x388>
    80053548:	e7bfe0ef          	jal	ra,800523c2 <kprint>
    8005354c:	fe843503          	ld	a0,-24(s0)
    80053550:	e68ff0ef          	jal	ra,80052bb8 <pci_irq_handle>
    80053554:	fe843783          	ld	a5,-24(s0)
    80053558:	2781                	sext.w	a5,a5
    8005355a:	85be                	mv	a1,a5
    8005355c:	4501                	li	a0,0
    8005355e:	e81ff0ef          	jal	ra,800533de <plic_complete>
    80053562:	a025                	j	8005358a <plic_handle_irq+0xfa>
    80053564:	0000e517          	auipc	a0,0xe
    80053568:	e2450513          	addi	a0,a0,-476 # 80061388 <_rodata_start+0x388>
    8005356c:	e57fe0ef          	jal	ra,800523c2 <kprint>
    80053570:	fe843503          	ld	a0,-24(s0)
    80053574:	e44ff0ef          	jal	ra,80052bb8 <pci_irq_handle>
    80053578:	fe843783          	ld	a5,-24(s0)
    8005357c:	2781                	sext.w	a5,a5
    8005357e:	85be                	mv	a1,a5
    80053580:	4501                	li	a0,0
    80053582:	e5dff0ef          	jal	ra,800533de <plic_complete>
    80053586:	a011                	j	8005358a <plic_handle_irq+0xfa>
    80053588:	0001                	nop
    8005358a:	0001                	nop
    8005358c:	70a2                	ld	ra,40(sp)
    8005358e:	7402                	ld	s0,32(sp)
    80053590:	6145                	addi	sp,sp,48
    80053592:	8082                	ret

0000000080053594 <init_cont_page>:
    80053594:	1141                	addi	sp,sp,-16
    80053596:	e406                	sd	ra,8(sp)
    80053598:	e022                	sd	s0,0(sp)
    8005359a:	0800                	addi	s0,sp,16
    8005359c:	0dbfd717          	auipc	a4,0xdbfd
    800535a0:	a6470713          	addi	a4,a4,-1436 # 8dc50000 <_heap_end>
    800535a4:	00020797          	auipc	a5,0x20
    800535a8:	a5c78793          	addi	a5,a5,-1444 # 80073000 <_heap_start>
    800535ac:	40f707b3          	sub	a5,a4,a5
    800535b0:	00c7d713          	srli	a4,a5,0xc
    800535b4:	00002797          	auipc	a5,0x2
    800535b8:	a8478793          	addi	a5,a5,-1404 # 80055038 <t_num_pages>
    800535bc:	e398                	sd	a4,0(a5)
    800535be:	00002797          	auipc	a5,0x2
    800535c2:	a8278793          	addi	a5,a5,-1406 # 80055040 <top_of_bk>
    800535c6:	00020717          	auipc	a4,0x20
    800535ca:	a3a70713          	addi	a4,a4,-1478 # 80073000 <_heap_start>
    800535ce:	e398                	sd	a4,0(a5)
    800535d0:	00002797          	auipc	a5,0x2
    800535d4:	a6878793          	addi	a5,a5,-1432 # 80055038 <t_num_pages>
    800535d8:	639c                	ld	a5,0(a5)
    800535da:	0027d713          	srli	a4,a5,0x2
    800535de:	00002797          	auipc	a5,0x2
    800535e2:	a7278793          	addi	a5,a5,-1422 # 80055050 <num_of_bk>
    800535e6:	e398                	sd	a4,0(a5)
    800535e8:	00002797          	auipc	a5,0x2
    800535ec:	a6878793          	addi	a5,a5,-1432 # 80055050 <num_of_bk>
    800535f0:	6398                	ld	a4,0(a5)
    800535f2:	00020697          	auipc	a3,0x20
    800535f6:	a0e68693          	addi	a3,a3,-1522 # 80073000 <_heap_start>
    800535fa:	6785                	lui	a5,0x1
    800535fc:	17fd                	addi	a5,a5,-1
    800535fe:	97b6                	add	a5,a5,a3
    80053600:	973e                	add	a4,a4,a5
    80053602:	001007b7          	lui	a5,0x100
    80053606:	17fd                	addi	a5,a5,-1
    80053608:	07b2                	slli	a5,a5,0xc
    8005360a:	8ff9                	and	a5,a5,a4
    8005360c:	873e                	mv	a4,a5
    8005360e:	00002797          	auipc	a5,0x2
    80053612:	a3a78793          	addi	a5,a5,-1478 # 80055048 <cont_head>
    80053616:	e398                	sd	a4,0(a5)
    80053618:	00002797          	auipc	a5,0x2
    8005361c:	a2878793          	addi	a5,a5,-1496 # 80055040 <top_of_bk>
    80053620:	6398                	ld	a4,0(a5)
    80053622:	00002797          	auipc	a5,0x2
    80053626:	a2e78793          	addi	a5,a5,-1490 # 80055050 <num_of_bk>
    8005362a:	639c                	ld	a5,0(a5)
    8005362c:	863e                	mv	a2,a5
    8005362e:	4581                	li	a1,0
    80053630:	853a                	mv	a0,a4
    80053632:	6de000ef          	jal	ra,80053d10 <memset>
    80053636:	0001                	nop
    80053638:	60a2                	ld	ra,8(sp)
    8005363a:	6402                	ld	s0,0(sp)
    8005363c:	0141                	addi	sp,sp,16
    8005363e:	8082                	ret

0000000080053640 <page_cont_falloc>:
    80053640:	711d                	addi	sp,sp,-96
    80053642:	eca2                	sd	s0,88(sp)
    80053644:	1080                	addi	s0,sp,96
    80053646:	faa43423          	sd	a0,-88(s0)
    8005364a:	fe043023          	sd	zero,-32(s0)
    8005364e:	fc043c23          	sd	zero,-40(s0)
    80053652:	fe043423          	sd	zero,-24(s0)
    80053656:	a069                	j	800536e0 <page_cont_falloc+0xa0>
    80053658:	00002797          	auipc	a5,0x2
    8005365c:	9e878793          	addi	a5,a5,-1560 # 80055040 <top_of_bk>
    80053660:	6398                	ld	a4,0(a5)
    80053662:	fe843783          	ld	a5,-24(s0)
    80053666:	8389                	srli	a5,a5,0x2
    80053668:	97ba                	add	a5,a5,a4
    8005366a:	0007c783          	lbu	a5,0(a5)
    8005366e:	0007871b          	sext.w	a4,a5
    80053672:	fe843783          	ld	a5,-24(s0)
    80053676:	8b8d                	andi	a5,a5,3
    80053678:	4691                	li	a3,4
    8005367a:	40f687b3          	sub	a5,a3,a5
    8005367e:	0007869b          	sext.w	a3,a5
    80053682:	800007b7          	lui	a5,0x80000
    80053686:	fff7c793          	not	a5,a5
    8005368a:	9fb5                	addw	a5,a5,a3
    8005368c:	2781                	sext.w	a5,a5
    8005368e:	0017979b          	slliw	a5,a5,0x1
    80053692:	2781                	sext.w	a5,a5
    80053694:	40f757bb          	sraw	a5,a4,a5
    80053698:	2781                	sext.w	a5,a5
    8005369a:	fcf43423          	sd	a5,-56(s0)
    8005369e:	fc843783          	ld	a5,-56(s0)
    800536a2:	8b89                	andi	a5,a5,2
    800536a4:	e799                	bnez	a5,800536b2 <page_cont_falloc+0x72>
    800536a6:	fe043783          	ld	a5,-32(s0)
    800536aa:	0785                	addi	a5,a5,1
    800536ac:	fef43023          	sd	a5,-32(s0)
    800536b0:	a019                	j	800536b6 <page_cont_falloc+0x76>
    800536b2:	fe043023          	sd	zero,-32(s0)
    800536b6:	fe043703          	ld	a4,-32(s0)
    800536ba:	fa843783          	ld	a5,-88(s0)
    800536be:	00f71c63          	bne	a4,a5,800536d6 <page_cont_falloc+0x96>
    800536c2:	fe843703          	ld	a4,-24(s0)
    800536c6:	fa843783          	ld	a5,-88(s0)
    800536ca:	40f707b3          	sub	a5,a4,a5
    800536ce:	0785                	addi	a5,a5,1
    800536d0:	fcf43c23          	sd	a5,-40(s0)
    800536d4:	a005                	j	800536f4 <page_cont_falloc+0xb4>
    800536d6:	fe843783          	ld	a5,-24(s0)
    800536da:	0785                	addi	a5,a5,1
    800536dc:	fef43423          	sd	a5,-24(s0)
    800536e0:	00002797          	auipc	a5,0x2
    800536e4:	97078793          	addi	a5,a5,-1680 # 80055050 <num_of_bk>
    800536e8:	639c                	ld	a5,0(a5)
    800536ea:	078a                	slli	a5,a5,0x2
    800536ec:	fe843703          	ld	a4,-24(s0)
    800536f0:	f6f764e3          	bltu	a4,a5,80053658 <page_cont_falloc+0x18>
    800536f4:	fe043703          	ld	a4,-32(s0)
    800536f8:	fa843783          	ld	a5,-88(s0)
    800536fc:	0ef71d63          	bne	a4,a5,800537f6 <page_cont_falloc+0x1b6>
    80053700:	fe043423          	sd	zero,-24(s0)
    80053704:	a0e9                	j	800537ce <page_cont_falloc+0x18e>
    80053706:	fd843703          	ld	a4,-40(s0)
    8005370a:	fe843783          	ld	a5,-24(s0)
    8005370e:	97ba                	add	a5,a5,a4
    80053710:	faf43c23          	sd	a5,-72(s0)
    80053714:	fa843783          	ld	a5,-88(s0)
    80053718:	17fd                	addi	a5,a5,-1
    8005371a:	fe843703          	ld	a4,-24(s0)
    8005371e:	02f70e63          	beq	a4,a5,8005375a <page_cont_falloc+0x11a>
    80053722:	4789                	li	a5,2
    80053724:	fcf43823          	sd	a5,-48(s0)
    80053728:	fb843783          	ld	a5,-72(s0)
    8005372c:	8b8d                	andi	a5,a5,3
    8005372e:	4711                	li	a4,4
    80053730:	40f707b3          	sub	a5,a4,a5
    80053734:	0007871b          	sext.w	a4,a5
    80053738:	800007b7          	lui	a5,0x80000
    8005373c:	fff7c793          	not	a5,a5
    80053740:	9fb9                	addw	a5,a5,a4
    80053742:	2781                	sext.w	a5,a5
    80053744:	0017979b          	slliw	a5,a5,0x1
    80053748:	2781                	sext.w	a5,a5
    8005374a:	873e                	mv	a4,a5
    8005374c:	fd043783          	ld	a5,-48(s0)
    80053750:	00e797b3          	sll	a5,a5,a4
    80053754:	fcf43823          	sd	a5,-48(s0)
    80053758:	a825                	j	80053790 <page_cont_falloc+0x150>
    8005375a:	478d                	li	a5,3
    8005375c:	fcf43823          	sd	a5,-48(s0)
    80053760:	fb843783          	ld	a5,-72(s0)
    80053764:	8b8d                	andi	a5,a5,3
    80053766:	4711                	li	a4,4
    80053768:	40f707b3          	sub	a5,a4,a5
    8005376c:	0007871b          	sext.w	a4,a5
    80053770:	800007b7          	lui	a5,0x80000
    80053774:	fff7c793          	not	a5,a5
    80053778:	9fb9                	addw	a5,a5,a4
    8005377a:	2781                	sext.w	a5,a5
    8005377c:	0017979b          	slliw	a5,a5,0x1
    80053780:	2781                	sext.w	a5,a5
    80053782:	873e                	mv	a4,a5
    80053784:	fd043783          	ld	a5,-48(s0)
    80053788:	00e797b3          	sll	a5,a5,a4
    8005378c:	fcf43823          	sd	a5,-48(s0)
    80053790:	00002797          	auipc	a5,0x2
    80053794:	8b078793          	addi	a5,a5,-1872 # 80055040 <top_of_bk>
    80053798:	6398                	ld	a4,0(a5)
    8005379a:	fb843783          	ld	a5,-72(s0)
    8005379e:	8389                	srli	a5,a5,0x2
    800537a0:	973e                	add	a4,a4,a5
    800537a2:	00074683          	lbu	a3,0(a4)
    800537a6:	fd043703          	ld	a4,-48(s0)
    800537aa:	0ff77713          	andi	a4,a4,255
    800537ae:	00002617          	auipc	a2,0x2
    800537b2:	89260613          	addi	a2,a2,-1902 # 80055040 <top_of_bk>
    800537b6:	6210                	ld	a2,0(a2)
    800537b8:	97b2                	add	a5,a5,a2
    800537ba:	8f55                	or	a4,a4,a3
    800537bc:	0ff77713          	andi	a4,a4,255
    800537c0:	00e78023          	sb	a4,0(a5)
    800537c4:	fe843783          	ld	a5,-24(s0)
    800537c8:	0785                	addi	a5,a5,1
    800537ca:	fef43423          	sd	a5,-24(s0)
    800537ce:	fe843703          	ld	a4,-24(s0)
    800537d2:	fa843783          	ld	a5,-88(s0)
    800537d6:	f2f768e3          	bltu	a4,a5,80053706 <page_cont_falloc+0xc6>
    800537da:	fd843783          	ld	a5,-40(s0)
    800537de:	07b2                	slli	a5,a5,0xc
    800537e0:	00002717          	auipc	a4,0x2
    800537e4:	86870713          	addi	a4,a4,-1944 # 80055048 <cont_head>
    800537e8:	6318                	ld	a4,0(a4)
    800537ea:	97ba                	add	a5,a5,a4
    800537ec:	fcf43023          	sd	a5,-64(s0)
    800537f0:	fc043783          	ld	a5,-64(s0)
    800537f4:	a019                	j	800537fa <page_cont_falloc+0x1ba>
    800537f6:	0001                	nop
    800537f8:	4781                	li	a5,0
    800537fa:	853e                	mv	a0,a5
    800537fc:	6466                	ld	s0,88(sp)
    800537fe:	6125                	addi	sp,sp,96
    80053800:	8082                	ret

0000000080053802 <page_cont_free>:
    80053802:	7139                	addi	sp,sp,-64
    80053804:	fc22                	sd	s0,56(sp)
    80053806:	0080                	addi	s0,sp,64
    80053808:	fca43423          	sd	a0,-56(s0)
    8005380c:	fe043423          	sd	zero,-24(s0)
    80053810:	00002797          	auipc	a5,0x2
    80053814:	83878793          	addi	a5,a5,-1992 # 80055048 <cont_head>
    80053818:	639c                	ld	a5,0(a5)
    8005381a:	fc843703          	ld	a4,-56(s0)
    8005381e:	40f707b3          	sub	a5,a4,a5
    80053822:	878d                	srai	a5,a5,0x3
    80053824:	43f7d693          	srai	a3,a5,0x3f
    80053828:	6705                	lui	a4,0x1
    8005382a:	177d                	addi	a4,a4,-1
    8005382c:	8f75                	and	a4,a4,a3
    8005382e:	97ba                	add	a5,a5,a4
    80053830:	87b1                	srai	a5,a5,0xc
    80053832:	fef43023          	sd	a5,-32(s0)
    80053836:	00002797          	auipc	a5,0x2
    8005383a:	80a78793          	addi	a5,a5,-2038 # 80055040 <top_of_bk>
    8005383e:	6398                	ld	a4,0(a5)
    80053840:	fe043683          	ld	a3,-32(s0)
    80053844:	fe843783          	ld	a5,-24(s0)
    80053848:	97b6                	add	a5,a5,a3
    8005384a:	8389                	srli	a5,a5,0x2
    8005384c:	97ba                	add	a5,a5,a4
    8005384e:	0007c783          	lbu	a5,0(a5)
    80053852:	0007871b          	sext.w	a4,a5
    80053856:	fe843783          	ld	a5,-24(s0)
    8005385a:	0037f693          	andi	a3,a5,3
    8005385e:	fe043783          	ld	a5,-32(s0)
    80053862:	97b6                	add	a5,a5,a3
    80053864:	4691                	li	a3,4
    80053866:	40f687b3          	sub	a5,a3,a5
    8005386a:	0007869b          	sext.w	a3,a5
    8005386e:	800007b7          	lui	a5,0x80000
    80053872:	fff7c793          	not	a5,a5
    80053876:	9fb5                	addw	a5,a5,a3
    80053878:	2781                	sext.w	a5,a5
    8005387a:	0017979b          	slliw	a5,a5,0x1
    8005387e:	2781                	sext.w	a5,a5
    80053880:	40f757bb          	sraw	a5,a4,a5
    80053884:	2781                	sext.w	a5,a5
    80053886:	fcf43c23          	sd	a5,-40(s0)
    8005388a:	fe843783          	ld	a5,-24(s0)
    8005388e:	0037f713          	andi	a4,a5,3
    80053892:	fe043783          	ld	a5,-32(s0)
    80053896:	97ba                	add	a5,a5,a4
    80053898:	4711                	li	a4,4
    8005389a:	40f707b3          	sub	a5,a4,a5
    8005389e:	0786                	slli	a5,a5,0x1
    800538a0:	17f9                	addi	a5,a5,-2
    800538a2:	4719                	li	a4,6
    800538a4:	02e78063          	beq	a5,a4,800538c4 <page_cont_free+0xc2>
    800538a8:	4719                	li	a4,6
    800538aa:	0ef76763          	bltu	a4,a5,80053998 <page_cont_free+0x196>
    800538ae:	4711                	li	a4,4
    800538b0:	04e78563          	beq	a5,a4,800538fa <page_cont_free+0xf8>
    800538b4:	4711                	li	a4,4
    800538b6:	0ef76163          	bltu	a4,a5,80053998 <page_cont_free+0x196>
    800538ba:	c7cd                	beqz	a5,80053964 <page_cont_free+0x162>
    800538bc:	4709                	li	a4,2
    800538be:	06e78963          	beq	a5,a4,80053930 <page_cont_free+0x12e>
    800538c2:	a8d9                	j	80053998 <page_cont_free+0x196>
    800538c4:	00001797          	auipc	a5,0x1
    800538c8:	77c78793          	addi	a5,a5,1916 # 80055040 <top_of_bk>
    800538cc:	6398                	ld	a4,0(a5)
    800538ce:	fe043683          	ld	a3,-32(s0)
    800538d2:	fe843783          	ld	a5,-24(s0)
    800538d6:	97b6                	add	a5,a5,a3
    800538d8:	8389                	srli	a5,a5,0x2
    800538da:	973e                	add	a4,a4,a5
    800538dc:	00074703          	lbu	a4,0(a4) # 1000 <i+0xfe0>
    800538e0:	00001697          	auipc	a3,0x1
    800538e4:	76068693          	addi	a3,a3,1888 # 80055040 <top_of_bk>
    800538e8:	6294                	ld	a3,0(a3)
    800538ea:	97b6                	add	a5,a5,a3
    800538ec:	03f77713          	andi	a4,a4,63
    800538f0:	0ff77713          	andi	a4,a4,255
    800538f4:	00e78023          	sb	a4,0(a5)
    800538f8:	a045                	j	80053998 <page_cont_free+0x196>
    800538fa:	00001797          	auipc	a5,0x1
    800538fe:	74678793          	addi	a5,a5,1862 # 80055040 <top_of_bk>
    80053902:	6398                	ld	a4,0(a5)
    80053904:	fe043683          	ld	a3,-32(s0)
    80053908:	fe843783          	ld	a5,-24(s0)
    8005390c:	97b6                	add	a5,a5,a3
    8005390e:	8389                	srli	a5,a5,0x2
    80053910:	973e                	add	a4,a4,a5
    80053912:	00074703          	lbu	a4,0(a4)
    80053916:	00001697          	auipc	a3,0x1
    8005391a:	72a68693          	addi	a3,a3,1834 # 80055040 <top_of_bk>
    8005391e:	6294                	ld	a3,0(a3)
    80053920:	97b6                	add	a5,a5,a3
    80053922:	fcf77713          	andi	a4,a4,-49
    80053926:	0ff77713          	andi	a4,a4,255
    8005392a:	00e78023          	sb	a4,0(a5)
    8005392e:	a0ad                	j	80053998 <page_cont_free+0x196>
    80053930:	00001797          	auipc	a5,0x1
    80053934:	71078793          	addi	a5,a5,1808 # 80055040 <top_of_bk>
    80053938:	6398                	ld	a4,0(a5)
    8005393a:	fe043683          	ld	a3,-32(s0)
    8005393e:	fe843783          	ld	a5,-24(s0)
    80053942:	97b6                	add	a5,a5,a3
    80053944:	8389                	srli	a5,a5,0x2
    80053946:	973e                	add	a4,a4,a5
    80053948:	00074703          	lbu	a4,0(a4)
    8005394c:	00001697          	auipc	a3,0x1
    80053950:	6f468693          	addi	a3,a3,1780 # 80055040 <top_of_bk>
    80053954:	6294                	ld	a3,0(a3)
    80053956:	97b6                	add	a5,a5,a3
    80053958:	9b4d                	andi	a4,a4,-13
    8005395a:	0ff77713          	andi	a4,a4,255
    8005395e:	00e78023          	sb	a4,0(a5)
    80053962:	a81d                	j	80053998 <page_cont_free+0x196>
    80053964:	00001797          	auipc	a5,0x1
    80053968:	6dc78793          	addi	a5,a5,1756 # 80055040 <top_of_bk>
    8005396c:	6398                	ld	a4,0(a5)
    8005396e:	fe043683          	ld	a3,-32(s0)
    80053972:	fe843783          	ld	a5,-24(s0)
    80053976:	97b6                	add	a5,a5,a3
    80053978:	8389                	srli	a5,a5,0x2
    8005397a:	973e                	add	a4,a4,a5
    8005397c:	00074703          	lbu	a4,0(a4)
    80053980:	00001697          	auipc	a3,0x1
    80053984:	6c068693          	addi	a3,a3,1728 # 80055040 <top_of_bk>
    80053988:	6294                	ld	a3,0(a3)
    8005398a:	97b6                	add	a5,a5,a3
    8005398c:	9b71                	andi	a4,a4,-4
    8005398e:	0ff77713          	andi	a4,a4,255
    80053992:	00e78023          	sb	a4,0(a5)
    80053996:	0001                	nop
    80053998:	fe843783          	ld	a5,-24(s0)
    8005399c:	0785                	addi	a5,a5,1
    8005399e:	fef43423          	sd	a5,-24(s0)
    800539a2:	fd843703          	ld	a4,-40(s0)
    800539a6:	478d                	li	a5,3
    800539a8:	e8f717e3          	bne	a4,a5,80053836 <page_cont_free+0x34>
    800539ac:	0001                	nop
    800539ae:	0001                	nop
    800539b0:	7462                	ld	s0,56(sp)
    800539b2:	6121                	addi	sp,sp,64
    800539b4:	8082                	ret

00000000800539b6 <initialize_page>:
    800539b6:	1101                	addi	sp,sp,-32
    800539b8:	ec22                	sd	s0,24(sp)
    800539ba:	1000                	addi	s0,sp,32
    800539bc:	00001797          	auipc	a5,0x1
    800539c0:	66c78793          	addi	a5,a5,1644 # 80055028 <head>
    800539c4:	0001f717          	auipc	a4,0x1f
    800539c8:	63c70713          	addi	a4,a4,1596 # 80073000 <_heap_start>
    800539cc:	e398                	sd	a4,0(a5)
    800539ce:	00001797          	auipc	a5,0x1
    800539d2:	65a78793          	addi	a5,a5,1626 # 80055028 <head>
    800539d6:	639c                	ld	a5,0(a5)
    800539d8:	fef43423          	sd	a5,-24(s0)
    800539dc:	fe843783          	ld	a5,-24(s0)
    800539e0:	fef43023          	sd	a5,-32(s0)
    800539e4:	a005                	j	80053a04 <initialize_page+0x4e>
    800539e6:	fe843783          	ld	a5,-24(s0)
    800539ea:	fe043703          	ld	a4,-32(s0)
    800539ee:	e398                	sd	a4,0(a5)
    800539f0:	fe043783          	ld	a5,-32(s0)
    800539f4:	fef43423          	sd	a5,-24(s0)
    800539f8:	fe843703          	ld	a4,-24(s0)
    800539fc:	6785                	lui	a5,0x1
    800539fe:	97ba                	add	a5,a5,a4
    80053a00:	fef43023          	sd	a5,-32(s0)
    80053a04:	fe043703          	ld	a4,-32(s0)
    80053a08:	0dbfc797          	auipc	a5,0xdbfc
    80053a0c:	5f878793          	addi	a5,a5,1528 # 8dc50000 <_heap_end>
    80053a10:	fcf76be3          	bltu	a4,a5,800539e6 <initialize_page+0x30>
    80053a14:	fe843783          	ld	a5,-24(s0)
    80053a18:	0007b023          	sd	zero,0(a5)
    80053a1c:	0001                	nop
    80053a1e:	6462                	ld	s0,24(sp)
    80053a20:	6105                	addi	sp,sp,32
    80053a22:	8082                	ret

0000000080053a24 <page_falloc>:
    80053a24:	1101                	addi	sp,sp,-32
    80053a26:	ec06                	sd	ra,24(sp)
    80053a28:	e822                	sd	s0,16(sp)
    80053a2a:	1000                	addi	s0,sp,32
    80053a2c:	00001797          	auipc	a5,0x1
    80053a30:	5fc78793          	addi	a5,a5,1532 # 80055028 <head>
    80053a34:	639c                	ld	a5,0(a5)
    80053a36:	e399                	bnez	a5,80053a3c <page_falloc+0x18>
    80053a38:	4781                	li	a5,0
    80053a3a:	a0b1                	j	80053a86 <page_falloc+0x62>
    80053a3c:	00001517          	auipc	a0,0x1
    80053a40:	5f450513          	addi	a0,a0,1524 # 80055030 <pg_lock>
    80053a44:	af6ff0ef          	jal	ra,80052d3a <mutex_spinlock>
    80053a48:	00001797          	auipc	a5,0x1
    80053a4c:	5e078793          	addi	a5,a5,1504 # 80055028 <head>
    80053a50:	639c                	ld	a5,0(a5)
    80053a52:	fef43423          	sd	a5,-24(s0)
    80053a56:	00001797          	auipc	a5,0x1
    80053a5a:	5d278793          	addi	a5,a5,1490 # 80055028 <head>
    80053a5e:	639c                	ld	a5,0(a5)
    80053a60:	6398                	ld	a4,0(a5)
    80053a62:	00001797          	auipc	a5,0x1
    80053a66:	5c678793          	addi	a5,a5,1478 # 80055028 <head>
    80053a6a:	e398                	sd	a4,0(a5)
    80053a6c:	00001517          	auipc	a0,0x1
    80053a70:	5c450513          	addi	a0,a0,1476 # 80055030 <pg_lock>
    80053a74:	aacff0ef          	jal	ra,80052d20 <mutex_unlock>
    80053a78:	6605                	lui	a2,0x1
    80053a7a:	4581                	li	a1,0
    80053a7c:	fe843503          	ld	a0,-24(s0)
    80053a80:	290000ef          	jal	ra,80053d10 <memset>
    80053a84:	87aa                	mv	a5,a0
    80053a86:	853e                	mv	a0,a5
    80053a88:	60e2                	ld	ra,24(sp)
    80053a8a:	6442                	ld	s0,16(sp)
    80053a8c:	6105                	addi	sp,sp,32
    80053a8e:	8082                	ret

0000000080053a90 <page_free>:
    80053a90:	1101                	addi	sp,sp,-32
    80053a92:	ec06                	sd	ra,24(sp)
    80053a94:	e822                	sd	s0,16(sp)
    80053a96:	1000                	addi	s0,sp,32
    80053a98:	fea43423          	sd	a0,-24(s0)
    80053a9c:	00001517          	auipc	a0,0x1
    80053aa0:	59450513          	addi	a0,a0,1428 # 80055030 <pg_lock>
    80053aa4:	a96ff0ef          	jal	ra,80052d3a <mutex_spinlock>
    80053aa8:	00001797          	auipc	a5,0x1
    80053aac:	58078793          	addi	a5,a5,1408 # 80055028 <head>
    80053ab0:	6398                	ld	a4,0(a5)
    80053ab2:	fe843783          	ld	a5,-24(s0)
    80053ab6:	e398                	sd	a4,0(a5)
    80053ab8:	00001797          	auipc	a5,0x1
    80053abc:	57078793          	addi	a5,a5,1392 # 80055028 <head>
    80053ac0:	fe843703          	ld	a4,-24(s0)
    80053ac4:	e398                	sd	a4,0(a5)
    80053ac6:	00001517          	auipc	a0,0x1
    80053aca:	56a50513          	addi	a0,a0,1386 # 80055030 <pg_lock>
    80053ace:	a52ff0ef          	jal	ra,80052d20 <mutex_unlock>
    80053ad2:	0001                	nop
    80053ad4:	60e2                	ld	ra,24(sp)
    80053ad6:	6442                	ld	s0,16(sp)
    80053ad8:	6105                	addi	sp,sp,32
    80053ada:	8082                	ret

0000000080053adc <dsk_read>:
    80053adc:	7179                	addi	sp,sp,-48
    80053ade:	f406                	sd	ra,40(sp)
    80053ae0:	f022                	sd	s0,32(sp)
    80053ae2:	1800                	addi	s0,sp,48
    80053ae4:	fea43423          	sd	a0,-24(s0)
    80053ae8:	feb43023          	sd	a1,-32(s0)
    80053aec:	fcc43c23          	sd	a2,-40(s0)
    80053af0:	fd843603          	ld	a2,-40(s0)
    80053af4:	fe043583          	ld	a1,-32(s0)
    80053af8:	fe843503          	ld	a0,-24(s0)
    80053afc:	e87fd0ef          	jal	ra,80051982 <virt_block_drive_read>
    80053b00:	0001                	nop
    80053b02:	70a2                	ld	ra,40(sp)
    80053b04:	7402                	ld	s0,32(sp)
    80053b06:	6145                	addi	sp,sp,48
    80053b08:	8082                	ret

0000000080053b0a <strcmp>:
    80053b0a:	1101                	addi	sp,sp,-32
    80053b0c:	ec22                	sd	s0,24(sp)
    80053b0e:	1000                	addi	s0,sp,32
    80053b10:	fea43423          	sd	a0,-24(s0)
    80053b14:	feb43023          	sd	a1,-32(s0)
    80053b18:	a0a1                	j	80053b60 <strcmp+0x56>
    80053b1a:	fe843783          	ld	a5,-24(s0)
    80053b1e:	0007c703          	lbu	a4,0(a5)
    80053b22:	fe043783          	ld	a5,-32(s0)
    80053b26:	0007c783          	lbu	a5,0(a5)
    80053b2a:	02f70163          	beq	a4,a5,80053b4c <strcmp+0x42>
    80053b2e:	fe843783          	ld	a5,-24(s0)
    80053b32:	0007c783          	lbu	a5,0(a5)
    80053b36:	0007871b          	sext.w	a4,a5
    80053b3a:	fe043783          	ld	a5,-32(s0)
    80053b3e:	0007c783          	lbu	a5,0(a5)
    80053b42:	2781                	sext.w	a5,a5
    80053b44:	40f707bb          	subw	a5,a4,a5
    80053b48:	2781                	sext.w	a5,a5
    80053b4a:	a0a1                	j	80053b92 <strcmp+0x88>
    80053b4c:	fe843783          	ld	a5,-24(s0)
    80053b50:	0785                	addi	a5,a5,1
    80053b52:	fef43423          	sd	a5,-24(s0)
    80053b56:	fe043783          	ld	a5,-32(s0)
    80053b5a:	0785                	addi	a5,a5,1
    80053b5c:	fef43023          	sd	a5,-32(s0)
    80053b60:	fe843783          	ld	a5,-24(s0)
    80053b64:	0007c783          	lbu	a5,0(a5)
    80053b68:	c791                	beqz	a5,80053b74 <strcmp+0x6a>
    80053b6a:	fe043783          	ld	a5,-32(s0)
    80053b6e:	0007c783          	lbu	a5,0(a5)
    80053b72:	f7c5                	bnez	a5,80053b1a <strcmp+0x10>
    80053b74:	fe843783          	ld	a5,-24(s0)
    80053b78:	0007c703          	lbu	a4,0(a5)
    80053b7c:	fe043783          	ld	a5,-32(s0)
    80053b80:	0007c783          	lbu	a5,0(a5)
    80053b84:	8fd9                	or	a5,a5,a4
    80053b86:	0ff7f793          	andi	a5,a5,255
    80053b8a:	e399                	bnez	a5,80053b90 <strcmp+0x86>
    80053b8c:	4781                	li	a5,0
    80053b8e:	a011                	j	80053b92 <strcmp+0x88>
    80053b90:	57fd                	li	a5,-1
    80053b92:	853e                	mv	a0,a5
    80053b94:	6462                	ld	s0,24(sp)
    80053b96:	6105                	addi	sp,sp,32
    80053b98:	8082                	ret

0000000080053b9a <strncmp>:
    80053b9a:	7179                	addi	sp,sp,-48
    80053b9c:	f422                	sd	s0,40(sp)
    80053b9e:	1800                	addi	s0,sp,48
    80053ba0:	fea43423          	sd	a0,-24(s0)
    80053ba4:	feb43023          	sd	a1,-32(s0)
    80053ba8:	87b2                	mv	a5,a2
    80053baa:	fcf42e23          	sw	a5,-36(s0)
    80053bae:	a005                	j	80053bce <strncmp+0x34>
    80053bb0:	fe843783          	ld	a5,-24(s0)
    80053bb4:	0785                	addi	a5,a5,1
    80053bb6:	fef43423          	sd	a5,-24(s0)
    80053bba:	fe043783          	ld	a5,-32(s0)
    80053bbe:	0785                	addi	a5,a5,1
    80053bc0:	fef43023          	sd	a5,-32(s0)
    80053bc4:	fdc42783          	lw	a5,-36(s0)
    80053bc8:	37fd                	addiw	a5,a5,-1
    80053bca:	fcf42e23          	sw	a5,-36(s0)
    80053bce:	fdc42783          	lw	a5,-36(s0)
    80053bd2:	2781                	sext.w	a5,a5
    80053bd4:	c385                	beqz	a5,80053bf4 <strncmp+0x5a>
    80053bd6:	fe843783          	ld	a5,-24(s0)
    80053bda:	0007c783          	lbu	a5,0(a5)
    80053bde:	cb99                	beqz	a5,80053bf4 <strncmp+0x5a>
    80053be0:	fe843783          	ld	a5,-24(s0)
    80053be4:	0007c703          	lbu	a4,0(a5)
    80053be8:	fe043783          	ld	a5,-32(s0)
    80053bec:	0007c783          	lbu	a5,0(a5)
    80053bf0:	fcf700e3          	beq	a4,a5,80053bb0 <strncmp+0x16>
    80053bf4:	fdc42783          	lw	a5,-36(s0)
    80053bf8:	2781                	sext.w	a5,a5
    80053bfa:	e399                	bnez	a5,80053c00 <strncmp+0x66>
    80053bfc:	4781                	li	a5,0
    80053bfe:	a839                	j	80053c1c <strncmp+0x82>
    80053c00:	fe843783          	ld	a5,-24(s0)
    80053c04:	0007c783          	lbu	a5,0(a5)
    80053c08:	0007871b          	sext.w	a4,a5
    80053c0c:	fe043783          	ld	a5,-32(s0)
    80053c10:	0007c783          	lbu	a5,0(a5)
    80053c14:	2781                	sext.w	a5,a5
    80053c16:	40f707bb          	subw	a5,a4,a5
    80053c1a:	2781                	sext.w	a5,a5
    80053c1c:	853e                	mv	a0,a5
    80053c1e:	7422                	ld	s0,40(sp)
    80053c20:	6145                	addi	sp,sp,48
    80053c22:	8082                	ret

0000000080053c24 <strcpy>:
    80053c24:	1101                	addi	sp,sp,-32
    80053c26:	ec22                	sd	s0,24(sp)
    80053c28:	1000                	addi	s0,sp,32
    80053c2a:	fea43423          	sd	a0,-24(s0)
    80053c2e:	feb43023          	sd	a1,-32(s0)
    80053c32:	a01d                	j	80053c58 <strcpy+0x34>
    80053c34:	fe043783          	ld	a5,-32(s0)
    80053c38:	0007c703          	lbu	a4,0(a5)
    80053c3c:	fe843783          	ld	a5,-24(s0)
    80053c40:	00e78023          	sb	a4,0(a5)
    80053c44:	fe843783          	ld	a5,-24(s0)
    80053c48:	0785                	addi	a5,a5,1
    80053c4a:	fef43423          	sd	a5,-24(s0)
    80053c4e:	fe043783          	ld	a5,-32(s0)
    80053c52:	0785                	addi	a5,a5,1
    80053c54:	fef43023          	sd	a5,-32(s0)
    80053c58:	fe043783          	ld	a5,-32(s0)
    80053c5c:	0007c783          	lbu	a5,0(a5)
    80053c60:	fbf1                	bnez	a5,80053c34 <strcpy+0x10>
    80053c62:	fe843783          	ld	a5,-24(s0)
    80053c66:	00078023          	sb	zero,0(a5)
    80053c6a:	4781                	li	a5,0
    80053c6c:	853e                	mv	a0,a5
    80053c6e:	6462                	ld	s0,24(sp)
    80053c70:	6105                	addi	sp,sp,32
    80053c72:	8082                	ret

0000000080053c74 <atoi>:
    80053c74:	7179                	addi	sp,sp,-48
    80053c76:	f422                	sd	s0,40(sp)
    80053c78:	1800                	addi	s0,sp,48
    80053c7a:	fca43c23          	sd	a0,-40(s0)
    80053c7e:	fe042623          	sw	zero,-20(s0)
    80053c82:	4785                	li	a5,1
    80053c84:	fef42423          	sw	a5,-24(s0)
    80053c88:	fe042223          	sw	zero,-28(s0)
    80053c8c:	fd843783          	ld	a5,-40(s0)
    80053c90:	0007c783          	lbu	a5,0(a5)
    80053c94:	873e                	mv	a4,a5
    80053c96:	02d00793          	li	a5,45
    80053c9a:	04f71863          	bne	a4,a5,80053cea <atoi+0x76>
    80053c9e:	57fd                	li	a5,-1
    80053ca0:	fef42423          	sw	a5,-24(s0)
    80053ca4:	fe442783          	lw	a5,-28(s0)
    80053ca8:	2785                	addiw	a5,a5,1
    80053caa:	fef42223          	sw	a5,-28(s0)
    80053cae:	a835                	j	80053cea <atoi+0x76>
    80053cb0:	fec42703          	lw	a4,-20(s0)
    80053cb4:	87ba                	mv	a5,a4
    80053cb6:	0027979b          	slliw	a5,a5,0x2
    80053cba:	9fb9                	addw	a5,a5,a4
    80053cbc:	0017979b          	slliw	a5,a5,0x1
    80053cc0:	0007871b          	sext.w	a4,a5
    80053cc4:	fe442783          	lw	a5,-28(s0)
    80053cc8:	fd843683          	ld	a3,-40(s0)
    80053ccc:	97b6                	add	a5,a5,a3
    80053cce:	0007c783          	lbu	a5,0(a5)
    80053cd2:	2781                	sext.w	a5,a5
    80053cd4:	9fb9                	addw	a5,a5,a4
    80053cd6:	2781                	sext.w	a5,a5
    80053cd8:	fd07879b          	addiw	a5,a5,-48
    80053cdc:	fef42623          	sw	a5,-20(s0)
    80053ce0:	fe442783          	lw	a5,-28(s0)
    80053ce4:	2785                	addiw	a5,a5,1
    80053ce6:	fef42223          	sw	a5,-28(s0)
    80053cea:	fe442783          	lw	a5,-28(s0)
    80053cee:	fd843703          	ld	a4,-40(s0)
    80053cf2:	97ba                	add	a5,a5,a4
    80053cf4:	0007c783          	lbu	a5,0(a5)
    80053cf8:	ffc5                	bnez	a5,80053cb0 <atoi+0x3c>
    80053cfa:	fe842703          	lw	a4,-24(s0)
    80053cfe:	fec42783          	lw	a5,-20(s0)
    80053d02:	02f707bb          	mulw	a5,a4,a5
    80053d06:	2781                	sext.w	a5,a5
    80053d08:	853e                	mv	a0,a5
    80053d0a:	7422                	ld	s0,40(sp)
    80053d0c:	6145                	addi	sp,sp,48
    80053d0e:	8082                	ret

0000000080053d10 <memset>:
    80053d10:	715d                	addi	sp,sp,-80
    80053d12:	e4a2                	sd	s0,72(sp)
    80053d14:	0880                	addi	s0,sp,80
    80053d16:	fca43423          	sd	a0,-56(s0)
    80053d1a:	87ae                	mv	a5,a1
    80053d1c:	fac43c23          	sd	a2,-72(s0)
    80053d20:	fcf42223          	sw	a5,-60(s0)
    80053d24:	fc843783          	ld	a5,-56(s0)
    80053d28:	fcf43c23          	sd	a5,-40(s0)
    80053d2c:	fc442783          	lw	a5,-60(s0)
    80053d30:	0ff7f793          	andi	a5,a5,255
    80053d34:	fcf40823          	sb	a5,-48(s0)
    80053d38:	fc442783          	lw	a5,-60(s0)
    80053d3c:	0ff7f793          	andi	a5,a5,255
    80053d40:	fcf408a3          	sb	a5,-47(s0)
    80053d44:	fc442783          	lw	a5,-60(s0)
    80053d48:	0ff7f793          	andi	a5,a5,255
    80053d4c:	fcf40923          	sb	a5,-46(s0)
    80053d50:	fc442783          	lw	a5,-60(s0)
    80053d54:	0ff7f793          	andi	a5,a5,255
    80053d58:	fcf409a3          	sb	a5,-45(s0)
    80053d5c:	fc442783          	lw	a5,-60(s0)
    80053d60:	0ff7f793          	andi	a5,a5,255
    80053d64:	fcf40a23          	sb	a5,-44(s0)
    80053d68:	fc442783          	lw	a5,-60(s0)
    80053d6c:	0ff7f793          	andi	a5,a5,255
    80053d70:	fcf40aa3          	sb	a5,-43(s0)
    80053d74:	fc442783          	lw	a5,-60(s0)
    80053d78:	0ff7f793          	andi	a5,a5,255
    80053d7c:	fcf40b23          	sb	a5,-42(s0)
    80053d80:	fc442783          	lw	a5,-60(s0)
    80053d84:	0ff7f793          	andi	a5,a5,255
    80053d88:	fcf40ba3          	sb	a5,-41(s0)
    80053d8c:	fb843783          	ld	a5,-72(s0)
    80053d90:	8b9d                	andi	a5,a5,7
    80053d92:	fef43423          	sd	a5,-24(s0)
    80053d96:	fe042223          	sw	zero,-28(s0)
    80053d9a:	a839                	j	80053db8 <memset+0xa8>
    80053d9c:	fd040713          	addi	a4,s0,-48
    80053da0:	fe446783          	lwu	a5,-28(s0)
    80053da4:	fc843683          	ld	a3,-56(s0)
    80053da8:	97b6                	add	a5,a5,a3
    80053daa:	6318                	ld	a4,0(a4)
    80053dac:	e398                	sd	a4,0(a5)
    80053dae:	fe442783          	lw	a5,-28(s0)
    80053db2:	27a1                	addiw	a5,a5,8
    80053db4:	fef42223          	sw	a5,-28(s0)
    80053db8:	fe446703          	lwu	a4,-28(s0)
    80053dbc:	fb843683          	ld	a3,-72(s0)
    80053dc0:	fe843783          	ld	a5,-24(s0)
    80053dc4:	40f687b3          	sub	a5,a3,a5
    80053dc8:	fcf76ae3          	bltu	a4,a5,80053d9c <memset+0x8c>
    80053dcc:	a01d                	j	80053df2 <memset+0xe2>
    80053dce:	fc442783          	lw	a5,-60(s0)
    80053dd2:	0ff7f713          	andi	a4,a5,255
    80053dd6:	fc843783          	ld	a5,-56(s0)
    80053dda:	00e78023          	sb	a4,0(a5)
    80053dde:	fc843783          	ld	a5,-56(s0)
    80053de2:	0785                	addi	a5,a5,1
    80053de4:	fcf43423          	sd	a5,-56(s0)
    80053de8:	fe843783          	ld	a5,-24(s0)
    80053dec:	17fd                	addi	a5,a5,-1
    80053dee:	fef43423          	sd	a5,-24(s0)
    80053df2:	fe843783          	ld	a5,-24(s0)
    80053df6:	ffe1                	bnez	a5,80053dce <memset+0xbe>
    80053df8:	fd843783          	ld	a5,-40(s0)
    80053dfc:	853e                	mv	a0,a5
    80053dfe:	6426                	ld	s0,72(sp)
    80053e00:	6161                	addi	sp,sp,80
    80053e02:	8082                	ret

0000000080053e04 <get_nano_time>:
    80053e04:	7139                	addi	sp,sp,-64
    80053e06:	fc06                	sd	ra,56(sp)
    80053e08:	f822                	sd	s0,48(sp)
    80053e0a:	0080                	addi	s0,sp,64
    80053e0c:	001017b7          	lui	a5,0x101
    80053e10:	fef43423          	sd	a5,-24(s0)
    80053e14:	fe843783          	ld	a5,-24(s0)
    80053e18:	0791                	addi	a5,a5,4
    80053e1a:	fef43023          	sd	a5,-32(s0)
    80053e1e:	00001797          	auipc	a5,0x1
    80053e22:	1fa78793          	addi	a5,a5,506 # 80055018 <kernel_page_table>
    80053e26:	639c                	ld	a5,0(a5)
    80053e28:	fe843583          	ld	a1,-24(s0)
    80053e2c:	fe843603          	ld	a2,-24(s0)
    80053e30:	4709                	li	a4,2
    80053e32:	6685                	lui	a3,0x1
    80053e34:	853e                	mv	a0,a5
    80053e36:	facfc0ef          	jal	ra,800505e2 <mmu_map>
    80053e3a:	fe843783          	ld	a5,-24(s0)
    80053e3e:	439c                	lw	a5,0(a5)
    80053e40:	2781                	sext.w	a5,a5
    80053e42:	1782                	slli	a5,a5,0x20
    80053e44:	9381                	srli	a5,a5,0x20
    80053e46:	fcf43c23          	sd	a5,-40(s0)
    80053e4a:	fe043783          	ld	a5,-32(s0)
    80053e4e:	439c                	lw	a5,0(a5)
    80053e50:	2781                	sext.w	a5,a5
    80053e52:	1782                	slli	a5,a5,0x20
    80053e54:	9381                	srli	a5,a5,0x20
    80053e56:	fcf43823          	sd	a5,-48(s0)
    80053e5a:	fd043783          	ld	a5,-48(s0)
    80053e5e:	1782                	slli	a5,a5,0x20
    80053e60:	fd843703          	ld	a4,-40(s0)
    80053e64:	8fd9                	or	a5,a5,a4
    80053e66:	fcf43423          	sd	a5,-56(s0)
    80053e6a:	fc843783          	ld	a5,-56(s0)
    80053e6e:	853e                	mv	a0,a5
    80053e70:	70e2                	ld	ra,56(sp)
    80053e72:	7442                	ld	s0,48(sp)
    80053e74:	6121                	addi	sp,sp,64
    80053e76:	8082                	ret

0000000080053e78 <get_unix_time>:
    80053e78:	7159                	addi	sp,sp,-112
    80053e7a:	f4a2                	sd	s0,104(sp)
    80053e7c:	1880                	addi	s0,sp,112
    80053e7e:	f8a43c23          	sd	a0,-104(s0)
    80053e82:	f8b43823          	sd	a1,-112(s0)
    80053e86:	fe043423          	sd	zero,-24(s0)
    80053e8a:	f9043703          	ld	a4,-112(s0)
    80053e8e:	0000d797          	auipc	a5,0xd
    80053e92:	7ca78793          	addi	a5,a5,1994 # 80061658 <_rodata_start+0x658>
    80053e96:	639c                	ld	a5,0(a5)
    80053e98:	97ba                	add	a5,a5,a4
    80053e9a:	f8f43823          	sd	a5,-112(s0)
    80053e9e:	fe843783          	ld	a5,-24(s0)
    80053ea2:	7b278793          	addi	a5,a5,1970
    80053ea6:	8b8d                	andi	a5,a5,3
    80053ea8:	e799                	bnez	a5,80053eb6 <get_unix_time+0x3e>
    80053eaa:	0000d797          	auipc	a5,0xd
    80053eae:	7b678793          	addi	a5,a5,1974 # 80061660 <_rodata_start+0x660>
    80053eb2:	639c                	ld	a5,0(a5)
    80053eb4:	a031                	j	80053ec0 <get_unix_time+0x48>
    80053eb6:	0000d797          	auipc	a5,0xd
    80053eba:	7b278793          	addi	a5,a5,1970 # 80061668 <_rodata_start+0x668>
    80053ebe:	639c                	ld	a5,0(a5)
    80053ec0:	fcf43c23          	sd	a5,-40(s0)
    80053ec4:	f9043703          	ld	a4,-112(s0)
    80053ec8:	fd843783          	ld	a5,-40(s0)
    80053ecc:	02f76063          	bltu	a4,a5,80053eec <get_unix_time+0x74>
    80053ed0:	f9043703          	ld	a4,-112(s0)
    80053ed4:	fd843783          	ld	a5,-40(s0)
    80053ed8:	40f707b3          	sub	a5,a4,a5
    80053edc:	f8f43823          	sd	a5,-112(s0)
    80053ee0:	fe843783          	ld	a5,-24(s0)
    80053ee4:	0785                	addi	a5,a5,1
    80053ee6:	fef43423          	sd	a5,-24(s0)
    80053eea:	bf55                	j	80053e9e <get_unix_time+0x26>
    80053eec:	0001                	nop
    80053eee:	fe843783          	ld	a5,-24(s0)
    80053ef2:	7b278793          	addi	a5,a5,1970
    80053ef6:	faf43423          	sd	a5,-88(s0)
    80053efa:	fa843783          	ld	a5,-88(s0)
    80053efe:	8b8d                	andi	a5,a5,3
    80053f00:	e799                	bnez	a5,80053f0e <get_unix_time+0x96>
    80053f02:	0000d797          	auipc	a5,0xd
    80053f06:	76e78793          	addi	a5,a5,1902 # 80061670 <_rodata_start+0x670>
    80053f0a:	639c                	ld	a5,0(a5)
    80053f0c:	a031                	j	80053f18 <get_unix_time+0xa0>
    80053f0e:	0000d797          	auipc	a5,0xd
    80053f12:	76a78793          	addi	a5,a5,1898 # 80061678 <_rodata_start+0x678>
    80053f16:	639c                	ld	a5,0(a5)
    80053f18:	0000e717          	auipc	a4,0xe
    80053f1c:	1d870713          	addi	a4,a4,472 # 800620f0 <months>
    80053f20:	e71c                	sd	a5,8(a4)
    80053f22:	fe042223          	sw	zero,-28(s0)
    80053f26:	a0b9                	j	80053f74 <get_unix_time+0xfc>
    80053f28:	0000e717          	auipc	a4,0xe
    80053f2c:	1c870713          	addi	a4,a4,456 # 800620f0 <months>
    80053f30:	fe446783          	lwu	a5,-28(s0)
    80053f34:	078e                	slli	a5,a5,0x3
    80053f36:	97ba                	add	a5,a5,a4
    80053f38:	639c                	ld	a5,0(a5)
    80053f3a:	f9043703          	ld	a4,-112(s0)
    80053f3e:	00f77763          	bgeu	a4,a5,80053f4c <get_unix_time+0xd4>
    80053f42:	fe446783          	lwu	a5,-28(s0)
    80053f46:	faf43823          	sd	a5,-80(s0)
    80053f4a:	a825                	j	80053f82 <get_unix_time+0x10a>
    80053f4c:	0000e717          	auipc	a4,0xe
    80053f50:	1a470713          	addi	a4,a4,420 # 800620f0 <months>
    80053f54:	fe446783          	lwu	a5,-28(s0)
    80053f58:	078e                	slli	a5,a5,0x3
    80053f5a:	97ba                	add	a5,a5,a4
    80053f5c:	639c                	ld	a5,0(a5)
    80053f5e:	f9043703          	ld	a4,-112(s0)
    80053f62:	40f707b3          	sub	a5,a4,a5
    80053f66:	f8f43823          	sd	a5,-112(s0)
    80053f6a:	fe442783          	lw	a5,-28(s0)
    80053f6e:	2785                	addiw	a5,a5,1
    80053f70:	fef42223          	sw	a5,-28(s0)
    80053f74:	fe442783          	lw	a5,-28(s0)
    80053f78:	0007871b          	sext.w	a4,a5
    80053f7c:	47ad                	li	a5,11
    80053f7e:	fae7f5e3          	bgeu	a5,a4,80053f28 <get_unix_time+0xb0>
    80053f82:	4785                	li	a5,1
    80053f84:	fef42223          	sw	a5,-28(s0)
    80053f88:	f9043703          	ld	a4,-112(s0)
    80053f8c:	0000d797          	auipc	a5,0xd
    80053f90:	6f478793          	addi	a5,a5,1780 # 80061680 <_rodata_start+0x680>
    80053f94:	639c                	ld	a5,0(a5)
    80053f96:	00e7e763          	bltu	a5,a4,80053fa4 <get_unix_time+0x12c>
    80053f9a:	fe446783          	lwu	a5,-28(s0)
    80053f9e:	faf43c23          	sd	a5,-72(s0)
    80053fa2:	a00d                	j	80053fc4 <get_unix_time+0x14c>
    80053fa4:	fe442783          	lw	a5,-28(s0)
    80053fa8:	2785                	addiw	a5,a5,1
    80053faa:	fef42223          	sw	a5,-28(s0)
    80053fae:	f9043703          	ld	a4,-112(s0)
    80053fb2:	b16b77b7          	lui	a5,0xb16b7
    80053fb6:	eb178793          	addi	a5,a5,-335 # ffffffffb16b6eb1 <_heap_end+0xffffffff23a66eb1>
    80053fba:	07c2                	slli	a5,a5,0x10
    80053fbc:	97ba                	add	a5,a5,a4
    80053fbe:	f8f43823          	sd	a5,-112(s0)
    80053fc2:	b7d9                	j	80053f88 <get_unix_time+0x110>
    80053fc4:	f9043703          	ld	a4,-112(s0)
    80053fc8:	1a3187b7          	lui	a5,0x1a318
    80053fcc:	5c578793          	addi	a5,a5,1477 # 1a3185c5 <i+0x1a3185a5>
    80053fd0:	07b6                	slli	a5,a5,0xd
    80053fd2:	02f757b3          	divu	a5,a4,a5
    80053fd6:	fcf43023          	sd	a5,-64(s0)
    80053fda:	fc043703          	ld	a4,-64(s0)
    80053fde:	1a3187b7          	lui	a5,0x1a318
    80053fe2:	5c578793          	addi	a5,a5,1477 # 1a3185c5 <i+0x1a3185a5>
    80053fe6:	07b6                	slli	a5,a5,0xd
    80053fe8:	02f707b3          	mul	a5,a4,a5
    80053fec:	f9043703          	ld	a4,-112(s0)
    80053ff0:	40f707b3          	sub	a5,a4,a5
    80053ff4:	f8f43823          	sd	a5,-112(s0)
    80053ff8:	f9043703          	ld	a4,-112(s0)
    80053ffc:	01bf17b7          	lui	a5,0x1bf1
    80054000:	8eb78793          	addi	a5,a5,-1813 # 1bf08eb <i+0x1bf08cb>
    80054004:	07ae                	slli	a5,a5,0xb
    80054006:	02f757b3          	divu	a5,a4,a5
    8005400a:	fcf43423          	sd	a5,-56(s0)
    8005400e:	fc843703          	ld	a4,-56(s0)
    80054012:	01bf17b7          	lui	a5,0x1bf1
    80054016:	8eb78793          	addi	a5,a5,-1813 # 1bf08eb <i+0x1bf08cb>
    8005401a:	07ae                	slli	a5,a5,0xb
    8005401c:	02f707b3          	mul	a5,a4,a5
    80054020:	f9043703          	ld	a4,-112(s0)
    80054024:	40f707b3          	sub	a5,a4,a5
    80054028:	f8f43823          	sd	a5,-112(s0)
    8005402c:	f9043703          	ld	a4,-112(s0)
    80054030:	3b9ad7b7          	lui	a5,0x3b9ad
    80054034:	a0078793          	addi	a5,a5,-1536 # 3b9aca00 <i+0x3b9ac9e0>
    80054038:	02f757b3          	divu	a5,a4,a5
    8005403c:	fcf43823          	sd	a5,-48(s0)
    80054040:	fd043703          	ld	a4,-48(s0)
    80054044:	3b9ad7b7          	lui	a5,0x3b9ad
    80054048:	a0078793          	addi	a5,a5,-1536 # 3b9aca00 <i+0x3b9ac9e0>
    8005404c:	02f707b3          	mul	a5,a4,a5
    80054050:	f9043703          	ld	a4,-112(s0)
    80054054:	40f707b3          	sub	a5,a4,a5
    80054058:	f8f43823          	sd	a5,-112(s0)
    8005405c:	f9843783          	ld	a5,-104(s0)
    80054060:	fa843803          	ld	a6,-88(s0)
    80054064:	fb043503          	ld	a0,-80(s0)
    80054068:	fb843583          	ld	a1,-72(s0)
    8005406c:	fc043603          	ld	a2,-64(s0)
    80054070:	fc843683          	ld	a3,-56(s0)
    80054074:	fd043703          	ld	a4,-48(s0)
    80054078:	0107b023          	sd	a6,0(a5)
    8005407c:	e788                	sd	a0,8(a5)
    8005407e:	eb8c                	sd	a1,16(a5)
    80054080:	ef90                	sd	a2,24(a5)
    80054082:	f394                	sd	a3,32(a5)
    80054084:	f798                	sd	a4,40(a5)
    80054086:	f9843503          	ld	a0,-104(s0)
    8005408a:	7426                	ld	s0,104(sp)
    8005408c:	6165                	addi	sp,sp,112
    8005408e:	8082                	ret

0000000080054090 <print_unix_time>:
    80054090:	715d                	addi	sp,sp,-80
    80054092:	e486                	sd	ra,72(sp)
    80054094:	e0a2                	sd	s0,64(sp)
    80054096:	0880                	addi	s0,sp,80
    80054098:	d6dff0ef          	jal	ra,80053e04 <get_nano_time>
    8005409c:	fea43423          	sd	a0,-24(s0)
    800540a0:	fb840793          	addi	a5,s0,-72
    800540a4:	fe843583          	ld	a1,-24(s0)
    800540a8:	853e                	mv	a0,a5
    800540aa:	dcfff0ef          	jal	ra,80053e78 <get_unix_time>
    800540ae:	fd843703          	ld	a4,-40(s0)
    800540b2:	47a5                	li	a5,9
    800540b4:	02e7ed63          	bltu	a5,a4,800540ee <print_unix_time+0x5e>
    800540b8:	fb843583          	ld	a1,-72(s0)
    800540bc:	fc043783          	ld	a5,-64(s0)
    800540c0:	0000e717          	auipc	a4,0xe
    800540c4:	09070713          	addi	a4,a4,144 # 80062150 <month_name>
    800540c8:	078e                	slli	a5,a5,0x3
    800540ca:	97ba                	add	a5,a5,a4
    800540cc:	6390                	ld	a2,0(a5)
    800540ce:	fc843683          	ld	a3,-56(s0)
    800540d2:	fd043703          	ld	a4,-48(s0)
    800540d6:	fd843783          	ld	a5,-40(s0)
    800540da:	fe043503          	ld	a0,-32(s0)
    800540de:	882a                	mv	a6,a0
    800540e0:	0000d517          	auipc	a0,0xd
    800540e4:	34050513          	addi	a0,a0,832 # 80061420 <_rodata_start+0x420>
    800540e8:	adafe0ef          	jal	ra,800523c2 <kprint>
    800540ec:	a81d                	j	80054122 <print_unix_time+0x92>
    800540ee:	fb843583          	ld	a1,-72(s0)
    800540f2:	fc043783          	ld	a5,-64(s0)
    800540f6:	0000e717          	auipc	a4,0xe
    800540fa:	05a70713          	addi	a4,a4,90 # 80062150 <month_name>
    800540fe:	078e                	slli	a5,a5,0x3
    80054100:	97ba                	add	a5,a5,a4
    80054102:	6390                	ld	a2,0(a5)
    80054104:	fc843683          	ld	a3,-56(s0)
    80054108:	fd043703          	ld	a4,-48(s0)
    8005410c:	fd843783          	ld	a5,-40(s0)
    80054110:	fe043503          	ld	a0,-32(s0)
    80054114:	882a                	mv	a6,a0
    80054116:	0000d517          	auipc	a0,0xd
    8005411a:	31a50513          	addi	a0,a0,794 # 80061430 <_rodata_start+0x430>
    8005411e:	aa4fe0ef          	jal	ra,800523c2 <kprint>
    80054122:	fe043703          	ld	a4,-32(s0)
    80054126:	47a5                	li	a5,9
    80054128:	00e7ec63          	bltu	a5,a4,80054140 <print_unix_time+0xb0>
    8005412c:	fe043783          	ld	a5,-32(s0)
    80054130:	85be                	mv	a1,a5
    80054132:	0000d517          	auipc	a0,0xd
    80054136:	30e50513          	addi	a0,a0,782 # 80061440 <_rodata_start+0x440>
    8005413a:	a88fe0ef          	jal	ra,800523c2 <kprint>
    8005413e:	a811                	j	80054152 <print_unix_time+0xc2>
    80054140:	fe043783          	ld	a5,-32(s0)
    80054144:	85be                	mv	a1,a5
    80054146:	0000d517          	auipc	a0,0xd
    8005414a:	30250513          	addi	a0,a0,770 # 80061448 <_rodata_start+0x448>
    8005414e:	a74fe0ef          	jal	ra,800523c2 <kprint>
    80054152:	0001                	nop
    80054154:	60a6                	ld	ra,72(sp)
    80054156:	6406                	ld	s0,64(sp)
    80054158:	6161                	addi	sp,sp,80
    8005415a:	8082                	ret

000000008005415c <test_hart>:
    8005415c:	140027f3          	csrr	a5,sscratch
    80054160:	828ff0ef          	jal	ra,80053188 <sbi_stop_hart>
    80054164:	0000d517          	auipc	a0,0xd
    80054168:	2ec50513          	addi	a0,a0,748 # 80061450 <_rodata_start+0x450>
    8005416c:	a56fe0ef          	jal	ra,800523c2 <kprint>
    80054170:	10500073          	wfi
    80054174:	bff5                	j	80054170 <test_hart+0x14>

0000000080054176 <start_hart>:
    80054176:	7179                	addi	sp,sp,-48
    80054178:	f406                	sd	ra,40(sp)
    8005417a:	f022                	sd	s0,32(sp)
    8005417c:	1800                	addi	s0,sp,48
    8005417e:	fca43c23          	sd	a0,-40(s0)
    80054182:	fd843503          	ld	a0,-40(s0)
    80054186:	f85fe0ef          	jal	ra,8005310a <sbi_hart_status>
    8005418a:	fea43423          	sd	a0,-24(s0)
    8005418e:	fe843783          	ld	a5,-24(s0)
    80054192:	eb91                	bnez	a5,800541a6 <start_hart+0x30>
    80054194:	fd843583          	ld	a1,-40(s0)
    80054198:	0000d517          	auipc	a0,0xd
    8005419c:	2d050513          	addi	a0,a0,720 # 80061468 <_rodata_start+0x468>
    800541a0:	a22fe0ef          	jal	ra,800523c2 <kprint>
    800541a4:	a805                	j	800541d4 <start_hart+0x5e>
    800541a6:	fe843703          	ld	a4,-24(s0)
    800541aa:	4785                	li	a5,1
    800541ac:	00f70b63          	beq	a4,a5,800541c2 <start_hart+0x4c>
    800541b0:	fd843583          	ld	a1,-40(s0)
    800541b4:	0000d517          	auipc	a0,0xd
    800541b8:	2cc50513          	addi	a0,a0,716 # 80061480 <_rodata_start+0x480>
    800541bc:	a06fe0ef          	jal	ra,800523c2 <kprint>
    800541c0:	a811                	j	800541d4 <start_hart+0x5e>
    800541c2:	4605                	li	a2,1
    800541c4:	00000597          	auipc	a1,0x0
    800541c8:	f9858593          	addi	a1,a1,-104 # 8005415c <test_hart>
    800541cc:	fd843503          	ld	a0,-40(s0)
    800541d0:	f7bfe0ef          	jal	ra,8005314a <sbi_start_hart>
    800541d4:	0001                	nop
    800541d6:	70a2                	ld	ra,40(sp)
    800541d8:	7402                	ld	s0,32(sp)
    800541da:	6145                	addi	sp,sp,48
    800541dc:	8082                	ret

00000000800541de <exec_cmd>:
    800541de:	bb010113          	addi	sp,sp,-1104
    800541e2:	44113423          	sd	ra,1096(sp)
    800541e6:	44813023          	sd	s0,1088(sp)
    800541ea:	45010413          	addi	s0,sp,1104
    800541ee:	baa43c23          	sd	a0,-1096(s0)
    800541f2:	0000d597          	auipc	a1,0xd
    800541f6:	2a658593          	addi	a1,a1,678 # 80061498 <_rodata_start+0x498>
    800541fa:	bb843503          	ld	a0,-1096(s0)
    800541fe:	90dff0ef          	jal	ra,80053b0a <strcmp>
    80054202:	87aa                	mv	a5,a0
    80054204:	eb81                	bnez	a5,80054214 <exec_cmd+0x36>
    80054206:	0000d517          	auipc	a0,0xd
    8005420a:	29a50513          	addi	a0,a0,666 # 800614a0 <_rodata_start+0x4a0>
    8005420e:	9b4fe0ef          	jal	ra,800523c2 <kprint>
    80054212:	ae21                	j	8005452a <exec_cmd+0x34c>
    80054214:	0000d597          	auipc	a1,0xd
    80054218:	2a458593          	addi	a1,a1,676 # 800614b8 <_rodata_start+0x4b8>
    8005421c:	bb843503          	ld	a0,-1096(s0)
    80054220:	8ebff0ef          	jal	ra,80053b0a <strcmp>
    80054224:	87aa                	mv	a5,a0
    80054226:	ef91                	bnez	a5,80054242 <exec_cmd+0x64>
    80054228:	c01027f3          	rdtime	a5
    8005422c:	faf43c23          	sd	a5,-72(s0)
    80054230:	fb843583          	ld	a1,-72(s0)
    80054234:	0000d517          	auipc	a0,0xd
    80054238:	29450513          	addi	a0,a0,660 # 800614c8 <_rodata_start+0x4c8>
    8005423c:	986fe0ef          	jal	ra,800523c2 <kprint>
    80054240:	a4ed                	j	8005452a <exec_cmd+0x34c>
    80054242:	0000d597          	auipc	a1,0xd
    80054246:	28e58593          	addi	a1,a1,654 # 800614d0 <_rodata_start+0x4d0>
    8005424a:	bb843503          	ld	a0,-1096(s0)
    8005424e:	8bdff0ef          	jal	ra,80053b0a <strcmp>
    80054252:	87aa                	mv	a5,a0
    80054254:	eb91                	bnez	a5,80054268 <exec_cmd+0x8a>
    80054256:	e3bff0ef          	jal	ra,80054090 <print_unix_time>
    8005425a:	0000d517          	auipc	a0,0xd
    8005425e:	28650513          	addi	a0,a0,646 # 800614e0 <_rodata_start+0x4e0>
    80054262:	960fe0ef          	jal	ra,800523c2 <kprint>
    80054266:	a4d1                	j	8005452a <exec_cmd+0x34c>
    80054268:	0000d597          	auipc	a1,0xd
    8005426c:	28058593          	addi	a1,a1,640 # 800614e8 <_rodata_start+0x4e8>
    80054270:	bb843503          	ld	a0,-1096(s0)
    80054274:	897ff0ef          	jal	ra,80053b0a <strcmp>
    80054278:	87aa                	mv	a5,a0
    8005427a:	e3e1                	bnez	a5,8005433a <exec_cmd+0x15c>
    8005427c:	fe042623          	sw	zero,-20(s0)
    80054280:	a06d                	j	8005432a <exec_cmd+0x14c>
    80054282:	fec42783          	lw	a5,-20(s0)
    80054286:	853e                	mv	a0,a5
    80054288:	e83fe0ef          	jal	ra,8005310a <sbi_hart_status>
    8005428c:	fca43023          	sd	a0,-64(s0)
    80054290:	fc043783          	ld	a5,-64(s0)
    80054294:	eb99                	bnez	a5,800542aa <exec_cmd+0xcc>
    80054296:	fec42783          	lw	a5,-20(s0)
    8005429a:	85be                	mv	a1,a5
    8005429c:	0000d517          	auipc	a0,0xd
    800542a0:	25450513          	addi	a0,a0,596 # 800614f0 <_rodata_start+0x4f0>
    800542a4:	91efe0ef          	jal	ra,800523c2 <kprint>
    800542a8:	a8a5                	j	80054320 <exec_cmd+0x142>
    800542aa:	fc043703          	ld	a4,-64(s0)
    800542ae:	4785                	li	a5,1
    800542b0:	00f71c63          	bne	a4,a5,800542c8 <exec_cmd+0xea>
    800542b4:	fec42783          	lw	a5,-20(s0)
    800542b8:	85be                	mv	a1,a5
    800542ba:	0000d517          	auipc	a0,0xd
    800542be:	24e50513          	addi	a0,a0,590 # 80061508 <_rodata_start+0x508>
    800542c2:	900fe0ef          	jal	ra,800523c2 <kprint>
    800542c6:	a8a9                	j	80054320 <exec_cmd+0x142>
    800542c8:	fc043703          	ld	a4,-64(s0)
    800542cc:	4789                	li	a5,2
    800542ce:	00f71c63          	bne	a4,a5,800542e6 <exec_cmd+0x108>
    800542d2:	fec42783          	lw	a5,-20(s0)
    800542d6:	85be                	mv	a1,a5
    800542d8:	0000d517          	auipc	a0,0xd
    800542dc:	24850513          	addi	a0,a0,584 # 80061520 <_rodata_start+0x520>
    800542e0:	8e2fe0ef          	jal	ra,800523c2 <kprint>
    800542e4:	a835                	j	80054320 <exec_cmd+0x142>
    800542e6:	fc043703          	ld	a4,-64(s0)
    800542ea:	478d                	li	a5,3
    800542ec:	00f71c63          	bne	a4,a5,80054304 <exec_cmd+0x126>
    800542f0:	fec42783          	lw	a5,-20(s0)
    800542f4:	85be                	mv	a1,a5
    800542f6:	0000d517          	auipc	a0,0xd
    800542fa:	24250513          	addi	a0,a0,578 # 80061538 <_rodata_start+0x538>
    800542fe:	8c4fe0ef          	jal	ra,800523c2 <kprint>
    80054302:	a839                	j	80054320 <exec_cmd+0x142>
    80054304:	fc043703          	ld	a4,-64(s0)
    80054308:	4791                	li	a5,4
    8005430a:	00f71b63          	bne	a4,a5,80054320 <exec_cmd+0x142>
    8005430e:	fec42783          	lw	a5,-20(s0)
    80054312:	85be                	mv	a1,a5
    80054314:	0000d517          	auipc	a0,0xd
    80054318:	23c50513          	addi	a0,a0,572 # 80061550 <_rodata_start+0x550>
    8005431c:	8a6fe0ef          	jal	ra,800523c2 <kprint>
    80054320:	fec42783          	lw	a5,-20(s0)
    80054324:	2785                	addiw	a5,a5,1
    80054326:	fef42623          	sw	a5,-20(s0)
    8005432a:	fec42783          	lw	a5,-20(s0)
    8005432e:	0007871b          	sext.w	a4,a5
    80054332:	479d                	li	a5,7
    80054334:	f4e7d7e3          	bge	a5,a4,80054282 <exec_cmd+0xa4>
    80054338:	aacd                	j	8005452a <exec_cmd+0x34c>
    8005433a:	0000d597          	auipc	a1,0xd
    8005433e:	22e58593          	addi	a1,a1,558 # 80061568 <_rodata_start+0x568>
    80054342:	bb843503          	ld	a0,-1096(s0)
    80054346:	fc4ff0ef          	jal	ra,80053b0a <strcmp>
    8005434a:	87aa                	mv	a5,a0
    8005434c:	e781                	bnez	a5,80054354 <exec_cmd+0x176>
    8005434e:	de7fe0ef          	jal	ra,80053134 <sbi_system_off>
    80054352:	aae1                	j	8005452a <exec_cmd+0x34c>
    80054354:	4615                	li	a2,5
    80054356:	0000d597          	auipc	a1,0xd
    8005435a:	22258593          	addi	a1,a1,546 # 80061578 <_rodata_start+0x578>
    8005435e:	bb843503          	ld	a0,-1096(s0)
    80054362:	839ff0ef          	jal	ra,80053b9a <strncmp>
    80054366:	87aa                	mv	a5,a0
    80054368:	ef8d                	bnez	a5,800543a2 <exec_cmd+0x1c4>
    8005436a:	bb843783          	ld	a5,-1096(s0)
    8005436e:	0799                	addi	a5,a5,6
    80054370:	853e                	mv	a0,a5
    80054372:	903ff0ef          	jal	ra,80053c74 <atoi>
    80054376:	87aa                	mv	a5,a0
    80054378:	fcf43423          	sd	a5,-56(s0)
    8005437c:	fc843703          	ld	a4,-56(s0)
    80054380:	47a5                	li	a5,9
    80054382:	00e7fb63          	bgeu	a5,a4,80054398 <exec_cmd+0x1ba>
    80054386:	fc843583          	ld	a1,-56(s0)
    8005438a:	0000d517          	auipc	a0,0xd
    8005438e:	1f650513          	addi	a0,a0,502 # 80061580 <_rodata_start+0x580>
    80054392:	830fe0ef          	jal	ra,800523c2 <kprint>
    80054396:	aa51                	j	8005452a <exec_cmd+0x34c>
    80054398:	fc843503          	ld	a0,-56(s0)
    8005439c:	ddbff0ef          	jal	ra,80054176 <start_hart>
    800543a0:	a269                	j	8005452a <exec_cmd+0x34c>
    800543a2:	0000d597          	auipc	a1,0xd
    800543a6:	1fe58593          	addi	a1,a1,510 # 800615a0 <_rodata_start+0x5a0>
    800543aa:	bb843503          	ld	a0,-1096(s0)
    800543ae:	f5cff0ef          	jal	ra,80053b0a <strcmp>
    800543b2:	87aa                	mv	a5,a0
    800543b4:	e7f1                	bnez	a5,80054480 <exec_cmd+0x2a2>
    800543b6:	fe043023          	sd	zero,-32(s0)
    800543ba:	a865                	j	80054472 <exec_cmd+0x294>
    800543bc:	fc043c23          	sd	zero,-40(s0)
    800543c0:	a879                	j	8005445e <exec_cmd+0x280>
    800543c2:	fe043783          	ld	a5,-32(s0)
    800543c6:	0ff7f793          	andi	a5,a5,255
    800543ca:	fd843703          	ld	a4,-40(s0)
    800543ce:	0ff77713          	andi	a4,a4,255
    800543d2:	4681                	li	a3,0
    800543d4:	4601                	li	a2,0
    800543d6:	85ba                	mv	a1,a4
    800543d8:	853e                	mv	a0,a5
    800543da:	9e4fe0ef          	jal	ra,800525be <get_ecam>
    800543de:	fca43823          	sd	a0,-48(s0)
    800543e2:	fd043783          	ld	a5,-48(s0)
    800543e6:	0007d783          	lhu	a5,0(a5)
    800543ea:	17c2                	slli	a5,a5,0x30
    800543ec:	93c1                	srli	a5,a5,0x30
    800543ee:	0007871b          	sext.w	a4,a5
    800543f2:	67c1                	lui	a5,0x10
    800543f4:	17fd                	addi	a5,a5,-1
    800543f6:	04f70e63          	beq	a4,a5,80054452 <exec_cmd+0x274>
    800543fa:	fd043783          	ld	a5,-48(s0)
    800543fe:	00a7d783          	lhu	a5,10(a5) # 1000a <i+0xffea>
    80054402:	17c2                	slli	a5,a5,0x30
    80054404:	93c1                	srli	a5,a5,0x30
    80054406:	2781                	sext.w	a5,a5
    80054408:	873e                	mv	a4,a5
    8005440a:	fd043683          	ld	a3,-48(s0)
    8005440e:	fd843603          	ld	a2,-40(s0)
    80054412:	fe043583          	ld	a1,-32(s0)
    80054416:	0000d517          	auipc	a0,0xd
    8005441a:	19250513          	addi	a0,a0,402 # 800615a8 <_rodata_start+0x5a8>
    8005441e:	fa5fd0ef          	jal	ra,800523c2 <kprint>
    80054422:	fd043783          	ld	a5,-48(s0)
    80054426:	0027d783          	lhu	a5,2(a5)
    8005442a:	17c2                	slli	a5,a5,0x30
    8005442c:	93c1                	srli	a5,a5,0x30
    8005442e:	0007871b          	sext.w	a4,a5
    80054432:	fd043783          	ld	a5,-48(s0)
    80054436:	0007d783          	lhu	a5,0(a5)
    8005443a:	17c2                	slli	a5,a5,0x30
    8005443c:	93c1                	srli	a5,a5,0x30
    8005443e:	2781                	sext.w	a5,a5
    80054440:	863e                	mv	a2,a5
    80054442:	85ba                	mv	a1,a4
    80054444:	0000d517          	auipc	a0,0xd
    80054448:	19c50513          	addi	a0,a0,412 # 800615e0 <_rodata_start+0x5e0>
    8005444c:	f77fd0ef          	jal	ra,800523c2 <kprint>
    80054450:	a011                	j	80054454 <exec_cmd+0x276>
    80054452:	0001                	nop
    80054454:	fd843783          	ld	a5,-40(s0)
    80054458:	0785                	addi	a5,a5,1
    8005445a:	fcf43c23          	sd	a5,-40(s0)
    8005445e:	fd843703          	ld	a4,-40(s0)
    80054462:	47fd                	li	a5,31
    80054464:	f4e7ffe3          	bgeu	a5,a4,800543c2 <exec_cmd+0x1e4>
    80054468:	fe043783          	ld	a5,-32(s0)
    8005446c:	0785                	addi	a5,a5,1
    8005446e:	fef43023          	sd	a5,-32(s0)
    80054472:	fe043703          	ld	a4,-32(s0)
    80054476:	0ff00793          	li	a5,255
    8005447a:	f4e7f1e3          	bgeu	a5,a4,800543bc <exec_cmd+0x1de>
    8005447e:	a075                	j	8005452a <exec_cmd+0x34c>
    80054480:	0000d597          	auipc	a1,0xd
    80054484:	19058593          	addi	a1,a1,400 # 80061610 <_rodata_start+0x610>
    80054488:	bb843503          	ld	a0,-1096(s0)
    8005448c:	e7eff0ef          	jal	ra,80053b0a <strcmp>
    80054490:	87aa                	mv	a5,a0
    80054492:	e7a9                	bnez	a5,800544dc <exec_cmd+0x2fe>
    80054494:	fa042823          	sw	zero,-80(s0)
    80054498:	fa040a23          	sb	zero,-76(s0)
    8005449c:	fb040793          	addi	a5,s0,-80
    800544a0:	4595                	li	a1,5
    800544a2:	853e                	mv	a0,a5
    800544a4:	cf3fc0ef          	jal	ra,80051196 <rng>
    800544a8:	fb044783          	lbu	a5,-80(s0)
    800544ac:	0007859b          	sext.w	a1,a5
    800544b0:	fb144783          	lbu	a5,-79(s0)
    800544b4:	0007861b          	sext.w	a2,a5
    800544b8:	fb244783          	lbu	a5,-78(s0)
    800544bc:	0007869b          	sext.w	a3,a5
    800544c0:	fb344783          	lbu	a5,-77(s0)
    800544c4:	0007871b          	sext.w	a4,a5
    800544c8:	fb444783          	lbu	a5,-76(s0)
    800544cc:	2781                	sext.w	a5,a5
    800544ce:	0000d517          	auipc	a0,0xd
    800544d2:	15250513          	addi	a0,a0,338 # 80061620 <_rodata_start+0x620>
    800544d6:	eedfd0ef          	jal	ra,800523c2 <kprint>
    800544da:	a881                	j	8005452a <exec_cmd+0x34c>
    800544dc:	0000d597          	auipc	a1,0xd
    800544e0:	16458593          	addi	a1,a1,356 # 80061640 <_rodata_start+0x640>
    800544e4:	bb843503          	ld	a0,-1096(s0)
    800544e8:	e22ff0ef          	jal	ra,80053b0a <strcmp>
    800544ec:	87aa                	mv	a5,a0
    800544ee:	ef95                	bnez	a5,8005452a <exec_cmd+0x34c>
    800544f0:	bc043423          	sd	zero,-1080(s0)
    800544f4:	bd040793          	addi	a5,s0,-1072
    800544f8:	3e000713          	li	a4,992
    800544fc:	863a                	mv	a2,a4
    800544fe:	4581                	li	a1,0
    80054500:	853e                	mv	a0,a5
    80054502:	80fff0ef          	jal	ra,80053d10 <memset>
    80054506:	bc840793          	addi	a5,s0,-1080
    8005450a:	3e800613          	li	a2,1000
    8005450e:	002ee5b7          	lui	a1,0x2ee
    80054512:	853e                	mv	a0,a5
    80054514:	dc8ff0ef          	jal	ra,80053adc <dsk_read>
    80054518:	bc840793          	addi	a5,s0,-1080
    8005451c:	85be                	mv	a1,a5
    8005451e:	0000d517          	auipc	a0,0xd
    80054522:	12a50513          	addi	a0,a0,298 # 80061648 <_rodata_start+0x648>
    80054526:	e9dfd0ef          	jal	ra,800523c2 <kprint>
    8005452a:	0001                	nop
    8005452c:	44813083          	ld	ra,1096(sp)
    80054530:	44013403          	ld	s0,1088(sp)
    80054534:	45010113          	addi	sp,sp,1104
    80054538:	8082                	ret
    8005453a:	0000                	unimp
    8005453c:	0000                	unimp
	...

0000000080054540 <sup_trap_vector>:
    80054540:	140f9ff3          	csrrw	t6,sscratch,t6
    80054544:	001fb423          	sd	ra,8(t6)
    80054548:	002fb823          	sd	sp,16(t6)
    8005454c:	003fbc23          	sd	gp,24(t6)
    80054550:	024fb023          	sd	tp,32(t6)
    80054554:	025fb423          	sd	t0,40(t6)
    80054558:	026fb823          	sd	t1,48(t6)
    8005455c:	027fbc23          	sd	t2,56(t6)
    80054560:	048fb023          	sd	s0,64(t6)
    80054564:	049fb423          	sd	s1,72(t6)
    80054568:	04afb823          	sd	a0,80(t6)
    8005456c:	04bfbc23          	sd	a1,88(t6)
    80054570:	06cfb023          	sd	a2,96(t6)
    80054574:	06dfb423          	sd	a3,104(t6)
    80054578:	06efb823          	sd	a4,112(t6)
    8005457c:	06ffbc23          	sd	a5,120(t6)
    80054580:	090fb023          	sd	a6,128(t6)
    80054584:	091fb423          	sd	a7,136(t6)
    80054588:	092fb823          	sd	s2,144(t6)
    8005458c:	093fbc23          	sd	s3,152(t6)
    80054590:	0b4fb023          	sd	s4,160(t6)
    80054594:	0b5fb423          	sd	s5,168(t6)
    80054598:	0b6fb823          	sd	s6,176(t6)
    8005459c:	0b7fbc23          	sd	s7,184(t6)
    800545a0:	0d8fb023          	sd	s8,192(t6)
    800545a4:	0d9fb423          	sd	s9,200(t6)
    800545a8:	0dafb823          	sd	s10,208(t6)
    800545ac:	0dbfbc23          	sd	s11,216(t6)
    800545b0:	0fcfb023          	sd	t3,224(t6)
    800545b4:	0fdfb423          	sd	t4,232(t6)
    800545b8:	0fefb823          	sd	t5,240(t6)
    800545bc:	8f7e                	mv	t5,t6
    800545be:	140f9ff3          	csrrw	t6,sscratch,t6
    800545c2:	0fff3c23          	sd	t6,248(t5)
    800545c6:	100022f3          	csrr	t0,sstatus
    800545ca:	0001f117          	auipc	sp,0x1f
    800545ce:	a3610113          	addi	sp,sp,-1482 # 80073000 <_heap_start>
    800545d2:	80010113          	addi	sp,sp,-2048
    800545d6:	f0efc0ef          	jal	ra,80050ce4 <sup_trap_handler>
    800545da:	14002ff3          	csrr	t6,sscratch
    800545de:	008fb083          	ld	ra,8(t6)
    800545e2:	010fb103          	ld	sp,16(t6)
    800545e6:	018fb183          	ld	gp,24(t6)
    800545ea:	020fb203          	ld	tp,32(t6)
    800545ee:	028fb283          	ld	t0,40(t6)
    800545f2:	030fb303          	ld	t1,48(t6)
    800545f6:	038fb383          	ld	t2,56(t6)
    800545fa:	040fb403          	ld	s0,64(t6)
    800545fe:	048fb483          	ld	s1,72(t6)
    80054602:	050fb503          	ld	a0,80(t6)
    80054606:	058fb583          	ld	a1,88(t6)
    8005460a:	060fb603          	ld	a2,96(t6)
    8005460e:	068fb683          	ld	a3,104(t6)
    80054612:	070fb703          	ld	a4,112(t6)
    80054616:	078fb783          	ld	a5,120(t6)
    8005461a:	080fb803          	ld	a6,128(t6)
    8005461e:	088fb883          	ld	a7,136(t6)
    80054622:	090fb903          	ld	s2,144(t6)
    80054626:	098fb983          	ld	s3,152(t6)
    8005462a:	0a0fba03          	ld	s4,160(t6)
    8005462e:	0a8fba83          	ld	s5,168(t6)
    80054632:	0b0fbb03          	ld	s6,176(t6)
    80054636:	0b8fbb83          	ld	s7,184(t6)
    8005463a:	0c0fbc03          	ld	s8,192(t6)
    8005463e:	0c8fbc83          	ld	s9,200(t6)
    80054642:	0d0fbd03          	ld	s10,208(t6)
    80054646:	0d8fbd83          	ld	s11,216(t6)
    8005464a:	0e0fbe03          	ld	t3,224(t6)
    8005464e:	0e8fbe83          	ld	t4,232(t6)
    80054652:	0f0fbf03          	ld	t5,240(t6)
    80054656:	0f8fbf83          	ld	t6,248(t6)
    8005465a:	10200073          	sret
